

Microchip Technology PIC18 LITE Macro Assembler V1.36 build -262312587 
                                                                                               Fri Feb 26 01:02:15 2016

Microchip Technology Omniscient Code Generator v1.36 (Free mode) build 201601150325
     1                           	processor	18F4685
     2                           	fnconf	rparam,??,?,0
     3                           	opt	pw 120
     4                           	opt	lm
     5                           	psect	cinit,global,reloc=2,class=CODE,delta=1
     6                           	psect	cstackBANK0,global,class=BANK0,space=1,delta=1
     7                           	psect	cstackCOMRAM,global,class=COMRAM,space=1,delta=1
     8                           	psect	text0,global,reloc=2,class=CODE,delta=1
     9                           	psect	text1,global,reloc=2,class=CODE,delta=1
    10                           	psect	text2,global,reloc=2,class=CODE,delta=1
    11                           	psect	text3,global,reloc=2,class=CODE,delta=1
    12                           	psect	text4,global,reloc=2,class=CODE,delta=1
    13                           	psect	text5,global,reloc=2,class=CODE,delta=1
    14                           	psect	text6,global,reloc=2,class=CODE,delta=1
    15                           	psect	text7,global,reloc=2,class=CODE,delta=1
    16                           	psect	text8,global,reloc=2,class=CODE,delta=1
    17                           	psect	text9,global,reloc=2,class=CODE,delta=1
    18                           	psect	text10,global,reloc=2,class=CODE,delta=1
    19                           	psect	text11,global,reloc=2,class=CODE,delta=1
    20                           	psect	text12,global,reloc=2,class=CODE,delta=1
    21                           	psect	intcodelo,global,reloc=2,class=CODE,delta=1
    22                           	psect	intcode,global,reloc=2,class=CODE,delta=1
    23                           	psect	intcode_body,global,reloc=2,class=CODE,delta=1
    24                           	psect	intsave_regs,global,class=BIGRAM,space=1,delta=1
    25                           	psect	rparam,global,class=COMRAM,space=1,delta=1
    26                           	psect	temp,global,ovrld,common,class=COMRAM,space=1,delta=1
    27  0000                     _ADCON0bits	set	4034
    28  0000                     _ADCON1bits	set	4033
    29  0000                     _ADCON2bits	set	4032
    30  0000                     _ADRESH	set	4036
    31  0000                     _ADRESL	set	4035
    32  0000                     _LATCbits	set	3979
    33  0000                     _LATDbits	set	3980
    34  0000                     _OSCCONbits	set	4051
    35  0000                     _OSCTUNEbits	set	3995
    36  0000                     _TRISAbits	set	3986
    37  0000                     _TRISBbits	set	3987
    38  0000                     _TRISCbits	set	3988
    39  0000                     _TRISDbits	set	3989
    40  0000                     _TRISEbits	set	3990
    41                           
    42                           ; #config settings
    43  0000                     
    44                           	psect	cinit
    45  000A36                     __pcinit:
    46                           	opt stack 0
    47  000A36                     start_initialization:
    48                           	opt stack 0
    49  000A36                     __initialization:
    50                           	opt stack 0
    51  000A36                     end_of_initialization:
    52                           	opt stack 0
    53  000A36                     __end_of__initialization:
    54                           	opt stack 0
    55  000A36  902A               	bcf	int$flags,0,c	;clear compiler interrupt flag (level 1)
    56  000A38  922A               	bcf	int$flags,1,c	;clear compiler interrupt flag (level 2)
    57  000A3A  0100               	movlb	0
    58  000A3C  EF55  F000         	goto	_main	;jump to C main() function
    59                           
    60                           	psect	cstackBANK0
    61  000060                     __pcstackBANK0:
    62                           	opt stack 0
    63  000060                     main@FORW:
    64                           	opt stack 0
    65                           
    66                           ; 1 bytes @ 0x0
    67  000060                     	ds	1
    68  000061                     main@BACK:
    69                           	opt stack 0
    70                           
    71                           ; 1 bytes @ 0x1
    72  000061                     	ds	1
    73  000062                     main@done:
    74                           	opt stack 0
    75                           
    76                           ; 1 bytes @ 0x2
    77  000062                     	ds	1
    78  000063                     main@actuator0:
    79                           	opt stack 0
    80                           
    81                           ; 2 bytes @ 0x3
    82  000063                     	ds	2
    83  000065                     main@actuator1:
    84                           	opt stack 0
    85                           
    86                           ; 2 bytes @ 0x5
    87  000065                     	ds	2
    88  000067                     main@actuator2:
    89                           	opt stack 0
    90                           
    91                           ; 2 bytes @ 0x7
    92  000067                     	ds	2
    93  000069                     main@actuator3:
    94                           	opt stack 0
    95                           
    96                           ; 2 bytes @ 0x9
    97  000069                     	ds	2
    98  00006B                     main@actuator4:
    99                           	opt stack 0
   100                           
   101                           ; 2 bytes @ 0xB
   102  00006B                     	ds	2
   103  00006D                     main@actuator5:
   104                           	opt stack 0
   105                           
   106                           ; 2 bytes @ 0xD
   107  00006D                     	ds	2
   108  00006F                     main@actuator6:
   109                           	opt stack 0
   110                           
   111                           ; 2 bytes @ 0xF
   112  00006F                     	ds	2
   113  000071                     main@actuator7:
   114                           	opt stack 0
   115                           
   116                           ; 2 bytes @ 0x11
   117  000071                     	ds	2
   118  000073                     main@retract:
   119                           	opt stack 0
   120                           
   121                           ; 2 bytes @ 0x13
   122  000073                     	ds	2
   123  000075                     main@extend:
   124                           	opt stack 0
   125                           
   126                           ; 2 bytes @ 0x15
   127  000075                     	ds	2
   128                           
   129                           	psect	cstackCOMRAM
   130  000001                     __pcstackCOMRAM:
   131                           	opt stack 0
   132  000001                     ??_high_isr:
   133  000001                     
   134                           ; 1 bytes @ 0x0
   135  000001                     	ds	14
   136  00000F                     ??_low_isr:
   137                           
   138                           ; 1 bytes @ 0xE
   139  00000F                     	ds	17
   140  000020                     ?_readADC:
   141                           	opt stack 0
   142                           
   143                           ; 2 bytes @ 0x1F
   144  000020                     	ds	2
   145  000022                     readADC@digitalVal:
   146                           	opt stack 0
   147                           
   148                           ; 2 bytes @ 0x21
   149  000022                     	ds	2
   150  000024                     ??_main:
   151                           
   152                           ; 1 bytes @ 0x23
   153  000024                     	ds	6
   154                           
   155 ;;
   156 ;;Main: autosize = 0, tempsize = 6, incstack = 0, save=0
   157 ;;
   158 ;; *************** function _main *****************
   159 ;; Defined at:
   160 ;;		line 37 in file "main.c"
   161 ;; Parameters:    Size  Location     Type
   162 ;;		None
   163 ;; Auto vars:     Size  Location     Type
   164 ;;  extend          2   21[BANK0 ] unsigned int 
   165 ;;  retract         2   19[BANK0 ] unsigned int 
   166 ;;  actuator7       2   17[BANK0 ] unsigned int 
   167 ;;  actuator6       2   15[BANK0 ] unsigned int 
   168 ;;  actuator5       2   13[BANK0 ] unsigned int 
   169 ;;  actuator4       2   11[BANK0 ] unsigned int 
   170 ;;  actuator3       2    9[BANK0 ] unsigned int 
   171 ;;  actuator2       2    7[BANK0 ] unsigned int 
   172 ;;  actuator1       2    5[BANK0 ] unsigned int 
   173 ;;  actuator0       2    3[BANK0 ] unsigned int 
   174 ;;  done            1    2[BANK0 ] unsigned char 
   175 ;;  BACK            1    1[BANK0 ] unsigned char 
   176 ;;  FORW            1    0[BANK0 ] unsigned char 
   177 ;; Return value:  Size  Location     Type
   178 ;;                  1    wreg      void 
   179 ;; Registers used:
   180 ;;		wreg, status,2, status,0, cstack
   181 ;; Tracked objects:
   182 ;;		On entry : 0/0
   183 ;;		On exit  : 0/0
   184 ;;		Unchanged: 0/0
   185 ;; Data sizes:     COMRAM   BANK0   BANK1   BANK2   BANK3   BANK4   BANK5   BANK6   BANK7   BANK8   BANK9  BANK10  BANK1
      +1  BANK12
   186 ;;      Params:         0       0       0       0       0       0       0       0       0       0       0       0       
      +0       0
   187 ;;      Locals:         0      23       0       0       0       0       0       0       0       0       0       0       
      +0       0
   188 ;;      Temps:          6       0       0       0       0       0       0       0       0       0       0       0       
      +0       0
   189 ;;      Totals:         6      23       0       0       0       0       0       0       0       0       0       0       
      +0       0
   190 ;;Total ram usage:       29 bytes
   191 ;; Hardware stack levels required when called:    3
   192 ;; This function calls:
   193 ;;		_ConfigureOscillator
   194 ;;		_readADC
   195 ;;		_selectAN0
   196 ;;		_selectAN1
   197 ;;		_selectAN2
   198 ;;		_selectAN3
   199 ;;		_selectAN4
   200 ;;		_selectAN5
   201 ;;		_selectAN6
   202 ;;		_selectAN7
   203 ;;		_setActuatorCntrl
   204 ;;		_setAnalogIn
   205 ;; This function is called by:
   206 ;;		Startup code after reset
   207 ;; This function uses a non-reentrant model
   208 ;;
   209                           
   210                           	psect	text0
   211  0000AA                     __ptext0:
   212                           	opt stack 0
   213  0000AA                     _main:
   214                           	opt stack 28
   215                           
   216                           ;main.c: 40: ConfigureOscillator();
   217                           
   218                           ;incstack = 0
   219  0000AA  EC15  F005         	call	_ConfigureOscillator	;wreg free
   220                           
   221                           ;main.c: 44: setAnalogIn();
   222  0000AE  ECDD  F004         	call	_setAnalogIn	;wreg free
   223                           
   224                           ;main.c: 45: setActuatorCntrl();
   225  0000B2  ECF7  F004         	call	_setActuatorCntrl	;wreg free
   226                           
   227                           ;main.c: 46: unsigned int actuator0 = 0;
   228  0000B6  0E00               	movlw	0
   229  0000B8  0100               	movlb	0	; () banked
   230  0000BA  6F64               	movwf	(main@actuator0+1)& (0+255),b
   231  0000BC  0E00               	movlw	0
   232  0000BE  6F63               	movwf	main@actuator0& (0+255),b
   233                           
   234                           ; BSR set to: 0
   235                           ;main.c: 47: unsigned int actuator1 = 0;
   236  0000C0  0E00               	movlw	0
   237  0000C2  0100               	movlb	0	; () banked
   238  0000C4  6F66               	movwf	(main@actuator1+1)& (0+255),b
   239  0000C6  0E00               	movlw	0
   240  0000C8  6F65               	movwf	main@actuator1& (0+255),b
   241                           
   242                           ; BSR set to: 0
   243                           ;main.c: 48: unsigned int actuator2 = 0;
   244  0000CA  0E00               	movlw	0
   245  0000CC  0100               	movlb	0	; () banked
   246  0000CE  6F68               	movwf	(main@actuator2+1)& (0+255),b
   247  0000D0  0E00               	movlw	0
   248  0000D2  6F67               	movwf	main@actuator2& (0+255),b
   249                           
   250                           ; BSR set to: 0
   251                           ;main.c: 49: unsigned int actuator3 = 0;
   252  0000D4  0E00               	movlw	0
   253  0000D6  0100               	movlb	0	; () banked
   254  0000D8  6F6A               	movwf	(main@actuator3+1)& (0+255),b
   255  0000DA  0E00               	movlw	0
   256  0000DC  6F69               	movwf	main@actuator3& (0+255),b
   257                           
   258                           ; BSR set to: 0
   259                           ;main.c: 50: unsigned int actuator4 = 0;
   260  0000DE  0E00               	movlw	0
   261  0000E0  0100               	movlb	0	; () banked
   262  0000E2  6F6C               	movwf	(main@actuator4+1)& (0+255),b
   263  0000E4  0E00               	movlw	0
   264  0000E6  6F6B               	movwf	main@actuator4& (0+255),b
   265                           
   266                           ; BSR set to: 0
   267                           ;main.c: 51: unsigned int actuator5 = 0;
   268  0000E8  0E00               	movlw	0
   269  0000EA  0100               	movlb	0	; () banked
   270  0000EC  6F6E               	movwf	(main@actuator5+1)& (0+255),b
   271  0000EE  0E00               	movlw	0
   272  0000F0  6F6D               	movwf	main@actuator5& (0+255),b
   273                           
   274                           ; BSR set to: 0
   275                           ;main.c: 52: unsigned int actuator6 = 0;
   276  0000F2  0E00               	movlw	0
   277  0000F4  0100               	movlb	0	; () banked
   278  0000F6  6F70               	movwf	(main@actuator6+1)& (0+255),b
   279  0000F8  0E00               	movlw	0
   280  0000FA  6F6F               	movwf	main@actuator6& (0+255),b
   281                           
   282                           ; BSR set to: 0
   283                           ;main.c: 53: unsigned int actuator7 = 0;
   284  0000FC  0E00               	movlw	0
   285  0000FE  0100               	movlb	0	; () banked
   286  000100  6F72               	movwf	(main@actuator7+1)& (0+255),b
   287  000102  0E00               	movlw	0
   288  000104  6F71               	movwf	main@actuator7& (0+255),b
   289                           
   290                           ; BSR set to: 0
   291                           ;main.c: 55: bool FORW = 0;
   292  000106  0E00               	movlw	0
   293  000108  0100               	movlb	0	; () banked
   294  00010A  6F60               	movwf	main@FORW& (0+255),b
   295                           
   296                           ; BSR set to: 0
   297                           ;main.c: 56: bool BACK = 0;
   298  00010C  0E00               	movlw	0
   299  00010E  0100               	movlb	0	; () banked
   300  000110  6F61               	movwf	main@BACK& (0+255),b
   301                           
   302                           ; BSR set to: 0
   303                           ;main.c: 57: bool done = 1;
   304  000112  0E01               	movlw	1
   305  000114  0100               	movlb	0	; () banked
   306  000116  6F62               	movwf	main@done& (0+255),b
   307                           
   308                           ; BSR set to: 0
   309                           ;main.c: 59: unsigned int retract = 200;
   310  000118  0E00               	movlw	0
   311  00011A  0100               	movlb	0	; () banked
   312  00011C  6F74               	movwf	(main@retract+1)& (0+255),b
   313  00011E  0EC8               	movlw	200
   314  000120  6F73               	movwf	main@retract& (0+255),b
   315                           
   316                           ; BSR set to: 0
   317                           ;main.c: 60: unsigned int extend = 800;
   318  000122  0E03               	movlw	3
   319  000124  0100               	movlb	0	; () banked
   320  000126  6F76               	movwf	(main@extend+1)& (0+255),b
   321  000128  0E20               	movlw	32
   322  00012A  6F75               	movwf	main@extend& (0+255),b
   323  00012C                     l1184:
   324                           
   325                           ; BSR set to: 0
   326                           ;main.c: 62: {
   327                           ;main.c: 66: selectAN0();
   328  00012C  EC43  F005         	call	_selectAN0	;wreg free
   329                           
   330                           ;main.c: 67: actuator0 = readADC();
   331  000130  EC08  F005         	call	_readADC	;wreg free
   332  000134  C020  F063         	movff	?_readADC,main@actuator0
   333  000138  C021  F064         	movff	?_readADC+1,main@actuator0+1
   334                           
   335                           ;main.c: 71: selectAN1();
   336  00013C  EC3E  F005         	call	_selectAN1	;wreg free
   337                           
   338                           ;main.c: 72: actuator1 = readADC();
   339  000140  EC08  F005         	call	_readADC	;wreg free
   340  000144  C020  F065         	movff	?_readADC,main@actuator1
   341  000148  C021  F066         	movff	?_readADC+1,main@actuator1+1
   342                           
   343                           ;main.c: 76: selectAN2();
   344  00014C  EC39  F005         	call	_selectAN2	;wreg free
   345                           
   346                           ;main.c: 77: actuator2 = readADC();
   347  000150  EC08  F005         	call	_readADC	;wreg free
   348  000154  C020  F067         	movff	?_readADC,main@actuator2
   349  000158  C021  F068         	movff	?_readADC+1,main@actuator2+1
   350                           
   351                           ;main.c: 81: selectAN3();
   352  00015C  EC34  F005         	call	_selectAN3	;wreg free
   353                           
   354                           ;main.c: 82: actuator3 = readADC();
   355  000160  EC08  F005         	call	_readADC	;wreg free
   356  000164  C020  F069         	movff	?_readADC,main@actuator3
   357  000168  C021  F06A         	movff	?_readADC+1,main@actuator3+1
   358                           
   359                           ;main.c: 86: selectAN4();
   360  00016C  EC2F  F005         	call	_selectAN4	;wreg free
   361                           
   362                           ;main.c: 87: actuator4 = readADC();
   363  000170  EC08  F005         	call	_readADC	;wreg free
   364  000174  C020  F06B         	movff	?_readADC,main@actuator4
   365  000178  C021  F06C         	movff	?_readADC+1,main@actuator4+1
   366                           
   367                           ;main.c: 91: selectAN5();
   368  00017C  EC2A  F005         	call	_selectAN5	;wreg free
   369                           
   370                           ;main.c: 92: actuator5 = readADC();
   371  000180  EC08  F005         	call	_readADC	;wreg free
   372  000184  C020  F06D         	movff	?_readADC,main@actuator5
   373  000188  C021  F06E         	movff	?_readADC+1,main@actuator5+1
   374                           
   375                           ;main.c: 96: selectAN6();
   376  00018C  EC25  F005         	call	_selectAN6	;wreg free
   377                           
   378                           ;main.c: 97: actuator6 = readADC();
   379  000190  EC08  F005         	call	_readADC	;wreg free
   380  000194  C020  F06F         	movff	?_readADC,main@actuator6
   381  000198  C021  F070         	movff	?_readADC+1,main@actuator6+1
   382                           
   383                           ;main.c: 101: selectAN7();
   384  00019C  EC20  F005         	call	_selectAN7	;wreg free
   385                           
   386                           ;main.c: 102: actuator7 = readADC();
   387  0001A0  EC08  F005         	call	_readADC	;wreg free
   388  0001A4  C020  F071         	movff	?_readADC,main@actuator7
   389  0001A8  C021  F072         	movff	?_readADC+1,main@actuator7+1
   390                           
   391                           ;main.c: 108: }
   392                           ;main.c: 111: if(FORW == 1 && BACK == 0)
   393  0001AC  0100               	movlb	0	; () banked
   394  0001AE  0560               	decf	main@FORW& (0+255),w,b
   395  0001B0  A4D8               	btfss	status,2,c
   396  0001B2  D144               	goto	l1294
   397                           
   398                           ; BSR set to: 0
   399  0001B4  0100               	movlb	0	; () banked
   400  0001B6  5161               	movf	main@BACK& (0+255),w,b
   401  0001B8  0100               	movlb	0	; () banked
   402  0001BA  A4D8               	btfss	status,2,c
   403  0001BC  D13F               	goto	l1294
   404                           
   405                           ; BSR set to: 0
   406                           ;main.c: 112: {
   407                           ;main.c: 114: if ((actuator0 == actuator2 == actuator5 == actuator7 == retract) &&
   408                           ;main.c: 115: (actuator1 == actuator3 == actuator4 == actuator6 == extend))
   409  0001BE  0100               	movlb	0	; () banked
   410  0001C0  5167               	movf	main@actuator2& (0+255),w,b
   411  0001C2  0100               	movlb	0	; () banked
   412  0001C4  1963               	xorwf	main@actuator0& (0+255),w,b
   413  0001C6  E108               	bnz	u990
   414  0001C8  0100               	movlb	0	; () banked
   415  0001CA  5168               	movf	(main@actuator2+1)& (0+255),w,b
   416  0001CC  0100               	movlb	0	; () banked
   417  0001CE  1964               	xorwf	(main@actuator0+1)& (0+255),w,b
   418  0001D0  A4D8               	btfss	status,2,c
   419  0001D2  D002               	goto	u990
   420  0001D4  0E01               	movlw	1
   421  0001D6  D001               	goto	u1000
   422  0001D8                     u990:
   423  0001D8  0E00               	movlw	0
   424  0001DA                     u1000:
   425  0001DA  6E24               	movwf	??_main& (0+255),c
   426  0001DC  6A25               	clrf	(??_main+1)& (0+255),c
   427  0001DE  0100               	movlb	0	; () banked
   428  0001E0  516D               	movf	main@actuator5& (0+255),w,b
   429  0001E2  1824               	xorwf	??_main,w,c
   430  0001E4  E107               	bnz	u1010
   431  0001E6  0100               	movlb	0	; () banked
   432  0001E8  516E               	movf	(main@actuator5+1)& (0+255),w,b
   433  0001EA  1825               	xorwf	??_main+1,w,c
   434  0001EC  A4D8               	btfss	status,2,c
   435  0001EE  D002               	goto	u1010
   436  0001F0  0E01               	movlw	1
   437  0001F2  D001               	goto	u1020
   438  0001F4                     u1010:
   439  0001F4  0E00               	movlw	0
   440  0001F6                     u1020:
   441  0001F6  6E26               	movwf	(??_main+2)& (0+255),c
   442  0001F8  6A27               	clrf	(??_main+3)& (0+255),c
   443  0001FA  0100               	movlb	0	; () banked
   444  0001FC  5171               	movf	main@actuator7& (0+255),w,b
   445  0001FE  1826               	xorwf	??_main+2,w,c
   446  000200  E107               	bnz	u1030
   447  000202  0100               	movlb	0	; () banked
   448  000204  5172               	movf	(main@actuator7+1)& (0+255),w,b
   449  000206  1827               	xorwf	??_main+3,w,c
   450  000208  A4D8               	btfss	status,2,c
   451  00020A  D002               	goto	u1030
   452  00020C  0E01               	movlw	1
   453  00020E  D001               	goto	u1040
   454  000210                     u1030:
   455  000210  0E00               	movlw	0
   456  000212                     u1040:
   457  000212  6E28               	movwf	(??_main+4)& (0+255),c
   458  000214  6A29               	clrf	(??_main+5)& (0+255),c
   459  000216  0100               	movlb	0	; () banked
   460  000218  5173               	movf	main@retract& (0+255),w,b
   461  00021A  1828               	xorwf	??_main+4,w,c
   462  00021C  E13A               	bnz	l1228
   463  00021E  0100               	movlb	0	; () banked
   464  000220  5174               	movf	(main@retract+1)& (0+255),w,b
   465  000222  1829               	xorwf	??_main+5,w,c
   466  000224  A4D8               	btfss	status,2,c
   467  000226  D035               	goto	l1228
   468                           
   469                           ; BSR set to: 0
   470  000228  0100               	movlb	0	; () banked
   471  00022A  5169               	movf	main@actuator3& (0+255),w,b
   472  00022C  0100               	movlb	0	; () banked
   473  00022E  1965               	xorwf	main@actuator1& (0+255),w,b
   474  000230  E108               	bnz	u1060
   475  000232  0100               	movlb	0	; () banked
   476  000234  516A               	movf	(main@actuator3+1)& (0+255),w,b
   477  000236  0100               	movlb	0	; () banked
   478  000238  1966               	xorwf	(main@actuator1+1)& (0+255),w,b
   479  00023A  A4D8               	btfss	status,2,c
   480  00023C  D002               	goto	u1060
   481  00023E  0E01               	movlw	1
   482  000240  D001               	goto	u1070
   483  000242                     u1060:
   484  000242  0E00               	movlw	0
   485  000244                     u1070:
   486  000244  6E24               	movwf	??_main& (0+255),c
   487  000246  6A25               	clrf	(??_main+1)& (0+255),c
   488  000248  0100               	movlb	0	; () banked
   489  00024A  516B               	movf	main@actuator4& (0+255),w,b
   490  00024C  1824               	xorwf	??_main,w,c
   491  00024E  E107               	bnz	u1080
   492  000250  0100               	movlb	0	; () banked
   493  000252  516C               	movf	(main@actuator4+1)& (0+255),w,b
   494  000254  1825               	xorwf	??_main+1,w,c
   495  000256  A4D8               	btfss	status,2,c
   496  000258  D002               	goto	u1080
   497  00025A  0E01               	movlw	1
   498  00025C  D001               	goto	u1090
   499  00025E                     u1080:
   500  00025E  0E00               	movlw	0
   501  000260                     u1090:
   502  000260  6E26               	movwf	(??_main+2)& (0+255),c
   503  000262  6A27               	clrf	(??_main+3)& (0+255),c
   504  000264  0100               	movlb	0	; () banked
   505  000266  516F               	movf	main@actuator6& (0+255),w,b
   506  000268  1826               	xorwf	??_main+2,w,c
   507  00026A  E107               	bnz	u1100
   508  00026C  0100               	movlb	0	; () banked
   509  00026E  5170               	movf	(main@actuator6+1)& (0+255),w,b
   510  000270  1827               	xorwf	??_main+3,w,c
   511  000272  A4D8               	btfss	status,2,c
   512  000274  D002               	goto	u1100
   513  000276  0E01               	movlw	1
   514  000278  D001               	goto	u1110
   515  00027A                     u1100:
   516  00027A  0E00               	movlw	0
   517  00027C                     u1110:
   518  00027C  6E28               	movwf	(??_main+4)& (0+255),c
   519  00027E  6A29               	clrf	(??_main+5)& (0+255),c
   520  000280  0100               	movlb	0	; () banked
   521  000282  5175               	movf	main@extend& (0+255),w,b
   522  000284  1828               	xorwf	??_main+4,w,c
   523  000286  E105               	bnz	l1228
   524  000288  0100               	movlb	0	; () banked
   525  00028A  5176               	movf	(main@extend+1)& (0+255),w,b
   526  00028C  1829               	xorwf	??_main+5,w,c
   527  00028E  B4D8               	btfsc	status,2,c
   528  000290  D288               	goto	l1374
   529  000292                     l1228:
   530                           
   531                           ; BSR set to: 0
   532                           ;main.c: 119: else
   533                           ;main.c: 120: {
   534                           ;main.c: 121: done = 0;
   535  000292  0E00               	movlw	0
   536  000294  0100               	movlb	0	; () banked
   537  000296  6F62               	movwf	main@done& (0+255),b
   538                           
   539                           ; BSR set to: 0
   540                           ;main.c: 127: if (actuator0 < retract)
   541  000298  0100               	movlb	0	; () banked
   542  00029A  5173               	movf	main@retract& (0+255),w,b
   543  00029C  0100               	movlb	0	; () banked
   544  00029E  5D63               	subwf	main@actuator0& (0+255),w,b
   545  0002A0  0100               	movlb	0	; () banked
   546  0002A2  5174               	movf	(main@retract+1)& (0+255),w,b
   547  0002A4  0100               	movlb	0	; () banked
   548  0002A6  5964               	subwfb	(main@actuator0+1)& (0+255),w,b
   549  0002A8  B0D8               	btfsc	status,0,c
   550  0002AA  D003               	goto	l1234
   551                           
   552                           ; BSR set to: 0
   553                           ;main.c: 128: {
   554                           ;main.c: 129: LATCbits.LATC0 = 0;
   555  0002AC  908B               	bcf	3979,0,c	;volatile
   556                           
   557                           ;main.c: 130: LATCbits.LATC1 = 1;
   558  0002AE  828B               	bsf	3979,1,c	;volatile
   559                           
   560                           ;main.c: 131: } else if (actuator0 > retract)
   561  0002B0  D00E               	goto	l1238
   562  0002B2                     l1234:
   563                           
   564                           ; BSR set to: 0
   565  0002B2  0100               	movlb	0	; () banked
   566  0002B4  5163               	movf	main@actuator0& (0+255),w,b
   567  0002B6  0100               	movlb	0	; () banked
   568  0002B8  5D73               	subwf	main@retract& (0+255),w,b
   569  0002BA  0100               	movlb	0	; () banked
   570  0002BC  5164               	movf	(main@actuator0+1)& (0+255),w,b
   571  0002BE  0100               	movlb	0	; () banked
   572  0002C0  5974               	subwfb	(main@retract+1)& (0+255),w,b
   573  0002C2  B0D8               	btfsc	status,0,c
   574  0002C4  D002               	goto	l44
   575                           
   576                           ; BSR set to: 0
   577                           ;main.c: 132: {
   578                           ;main.c: 133: LATCbits.LATC0 = 1;
   579  0002C6  808B               	bsf	3979,0,c	;volatile
   580  0002C8  D001               	goto	L1
   581  0002CA                     l44:
   582                           
   583                           ; BSR set to: 0
   584                           ;main.c: 136: LATCbits.LATC0 = 0;
   585  0002CA  908B               	bcf	3979,0,c	;volatile
   586  0002CC                     L1:
   587                           
   588                           ;main.c: 137: LATCbits.LATC1 = 0;
   589  0002CC  928B               	bcf	3979,1,c	;volatile
   590  0002CE                     l1238:
   591                           
   592                           ; BSR set to: 0
   593                           ;main.c: 138: }
   594                           ;main.c: 141: if (actuator1 < extend)
   595  0002CE  0100               	movlb	0	; () banked
   596  0002D0  5175               	movf	main@extend& (0+255),w,b
   597  0002D2  0100               	movlb	0	; () banked
   598  0002D4  5D65               	subwf	main@actuator1& (0+255),w,b
   599  0002D6  0100               	movlb	0	; () banked
   600  0002D8  5176               	movf	(main@extend+1)& (0+255),w,b
   601  0002DA  0100               	movlb	0	; () banked
   602  0002DC  5966               	subwfb	(main@actuator1+1)& (0+255),w,b
   603  0002DE  B0D8               	btfsc	status,0,c
   604  0002E0  D003               	goto	l1242
   605                           
   606                           ; BSR set to: 0
   607                           ;main.c: 142: {
   608                           ;main.c: 143: LATCbits.LATC2 = 0;
   609  0002E2  948B               	bcf	3979,2,c	;volatile
   610                           
   611                           ;main.c: 144: LATCbits.LATC3 = 1;
   612  0002E4  868B               	bsf	3979,3,c	;volatile
   613                           
   614                           ;main.c: 145: } else if (actuator1 > extend)
   615  0002E6  D00E               	goto	l1246
   616  0002E8                     l1242:
   617                           
   618                           ; BSR set to: 0
   619  0002E8  0100               	movlb	0	; () banked
   620  0002EA  5165               	movf	main@actuator1& (0+255),w,b
   621  0002EC  0100               	movlb	0	; () banked
   622  0002EE  5D75               	subwf	main@extend& (0+255),w,b
   623  0002F0  0100               	movlb	0	; () banked
   624  0002F2  5166               	movf	(main@actuator1+1)& (0+255),w,b
   625  0002F4  0100               	movlb	0	; () banked
   626  0002F6  5976               	subwfb	(main@extend+1)& (0+255),w,b
   627  0002F8  B0D8               	btfsc	status,0,c
   628  0002FA  D002               	goto	l48
   629                           
   630                           ; BSR set to: 0
   631                           ;main.c: 146: {
   632                           ;main.c: 147: LATCbits.LATC2 = 1;
   633  0002FC  848B               	bsf	3979,2,c	;volatile
   634  0002FE  D001               	goto	L2
   635  000300                     l48:
   636                           
   637                           ; BSR set to: 0
   638                           ;main.c: 150: LATCbits.LATC2 = 0;
   639  000300  948B               	bcf	3979,2,c	;volatile
   640  000302                     L2:
   641                           
   642                           ;main.c: 151: LATCbits.LATC3 = 0;
   643  000302  968B               	bcf	3979,3,c	;volatile
   644  000304                     l1246:
   645                           
   646                           ; BSR set to: 0
   647                           ;main.c: 152: }
   648                           ;main.c: 155: if (actuator2 < retract)
   649  000304  0100               	movlb	0	; () banked
   650  000306  5173               	movf	main@retract& (0+255),w,b
   651  000308  0100               	movlb	0	; () banked
   652  00030A  5D67               	subwf	main@actuator2& (0+255),w,b
   653  00030C  0100               	movlb	0	; () banked
   654  00030E  5174               	movf	(main@retract+1)& (0+255),w,b
   655  000310  0100               	movlb	0	; () banked
   656  000312  5968               	subwfb	(main@actuator2+1)& (0+255),w,b
   657  000314  B0D8               	btfsc	status,0,c
   658  000316  D003               	goto	l1250
   659                           
   660                           ; BSR set to: 0
   661                           ;main.c: 156: {
   662                           ;main.c: 157: LATDbits.LATD0 = 0;
   663  000318  908C               	bcf	3980,0,c	;volatile
   664                           
   665                           ;main.c: 158: LATDbits.LATD1 = 1;
   666  00031A  828C               	bsf	3980,1,c	;volatile
   667                           
   668                           ;main.c: 159: } else if (actuator2 > retract)
   669  00031C  D00E               	goto	l1254
   670  00031E                     l1250:
   671                           
   672                           ; BSR set to: 0
   673  00031E  0100               	movlb	0	; () banked
   674  000320  5167               	movf	main@actuator2& (0+255),w,b
   675  000322  0100               	movlb	0	; () banked
   676  000324  5D73               	subwf	main@retract& (0+255),w,b
   677  000326  0100               	movlb	0	; () banked
   678  000328  5168               	movf	(main@actuator2+1)& (0+255),w,b
   679  00032A  0100               	movlb	0	; () banked
   680  00032C  5974               	subwfb	(main@retract+1)& (0+255),w,b
   681  00032E  B0D8               	btfsc	status,0,c
   682  000330  D002               	goto	l52
   683                           
   684                           ; BSR set to: 0
   685                           ;main.c: 160: {
   686                           ;main.c: 161: LATDbits.LATD0 = 1;
   687  000332  808C               	bsf	3980,0,c	;volatile
   688  000334  D001               	goto	L3
   689  000336                     l52:
   690                           
   691                           ; BSR set to: 0
   692                           ;main.c: 164: LATDbits.LATD0 = 0;
   693  000336  908C               	bcf	3980,0,c	;volatile
   694  000338                     L3:
   695                           
   696                           ;main.c: 165: LATDbits.LATD1 = 0;
   697  000338  928C               	bcf	3980,1,c	;volatile
   698  00033A                     l1254:
   699                           
   700                           ; BSR set to: 0
   701                           ;main.c: 166: }
   702                           ;main.c: 169: if (actuator3 < extend)
   703  00033A  0100               	movlb	0	; () banked
   704  00033C  5175               	movf	main@extend& (0+255),w,b
   705  00033E  0100               	movlb	0	; () banked
   706  000340  5D69               	subwf	main@actuator3& (0+255),w,b
   707  000342  0100               	movlb	0	; () banked
   708  000344  5176               	movf	(main@extend+1)& (0+255),w,b
   709  000346  0100               	movlb	0	; () banked
   710  000348  596A               	subwfb	(main@actuator3+1)& (0+255),w,b
   711  00034A  B0D8               	btfsc	status,0,c
   712  00034C  D003               	goto	l1258
   713                           
   714                           ; BSR set to: 0
   715                           ;main.c: 170: {
   716                           ;main.c: 171: LATDbits.LATD2 = 0;
   717  00034E  948C               	bcf	3980,2,c	;volatile
   718                           
   719                           ;main.c: 172: LATDbits.LATD3 = 1;
   720  000350  868C               	bsf	3980,3,c	;volatile
   721                           
   722                           ;main.c: 173: } else if (actuator3 > extend)
   723  000352  D00E               	goto	l1262
   724  000354                     l1258:
   725                           
   726                           ; BSR set to: 0
   727  000354  0100               	movlb	0	; () banked
   728  000356  5169               	movf	main@actuator3& (0+255),w,b
   729  000358  0100               	movlb	0	; () banked
   730  00035A  5D75               	subwf	main@extend& (0+255),w,b
   731  00035C  0100               	movlb	0	; () banked
   732  00035E  516A               	movf	(main@actuator3+1)& (0+255),w,b
   733  000360  0100               	movlb	0	; () banked
   734  000362  5976               	subwfb	(main@extend+1)& (0+255),w,b
   735  000364  B0D8               	btfsc	status,0,c
   736  000366  D002               	goto	l56
   737                           
   738                           ; BSR set to: 0
   739                           ;main.c: 174: {
   740                           ;main.c: 175: LATDbits.LATD2 = 1;
   741  000368  848C               	bsf	3980,2,c	;volatile
   742  00036A  D001               	goto	L4
   743  00036C                     l56:
   744                           
   745                           ; BSR set to: 0
   746                           ;main.c: 178: LATDbits.LATD2 = 0;
   747  00036C  948C               	bcf	3980,2,c	;volatile
   748  00036E                     L4:
   749                           
   750                           ;main.c: 179: LATDbits.LATD3 = 0;
   751  00036E  968C               	bcf	3980,3,c	;volatile
   752  000370                     l1262:
   753                           
   754                           ; BSR set to: 0
   755                           ;main.c: 180: }
   756                           ;main.c: 183: if (actuator4 < extend)
   757  000370  0100               	movlb	0	; () banked
   758  000372  5175               	movf	main@extend& (0+255),w,b
   759  000374  0100               	movlb	0	; () banked
   760  000376  5D6B               	subwf	main@actuator4& (0+255),w,b
   761  000378  0100               	movlb	0	; () banked
   762  00037A  5176               	movf	(main@extend+1)& (0+255),w,b
   763  00037C  0100               	movlb	0	; () banked
   764  00037E  596C               	subwfb	(main@actuator4+1)& (0+255),w,b
   765  000380  B0D8               	btfsc	status,0,c
   766  000382  D003               	goto	l1266
   767                           
   768                           ; BSR set to: 0
   769                           ;main.c: 184: {
   770                           ;main.c: 185: LATCbits.LATC4 = 0;
   771  000384  988B               	bcf	3979,4,c	;volatile
   772                           
   773                           ;main.c: 186: LATCbits.LATC5 = 1;
   774  000386  8A8B               	bsf	3979,5,c	;volatile
   775                           
   776                           ;main.c: 187: } else if (actuator4 > extend)
   777  000388  D00E               	goto	l1270
   778  00038A                     l1266:
   779                           
   780                           ; BSR set to: 0
   781  00038A  0100               	movlb	0	; () banked
   782  00038C  516B               	movf	main@actuator4& (0+255),w,b
   783  00038E  0100               	movlb	0	; () banked
   784  000390  5D75               	subwf	main@extend& (0+255),w,b
   785  000392  0100               	movlb	0	; () banked
   786  000394  516C               	movf	(main@actuator4+1)& (0+255),w,b
   787  000396  0100               	movlb	0	; () banked
   788  000398  5976               	subwfb	(main@extend+1)& (0+255),w,b
   789  00039A  B0D8               	btfsc	status,0,c
   790  00039C  D002               	goto	l60
   791                           
   792                           ; BSR set to: 0
   793                           ;main.c: 188: {
   794                           ;main.c: 189: LATCbits.LATC4 = 1;
   795  00039E  888B               	bsf	3979,4,c	;volatile
   796  0003A0  D001               	goto	L5
   797  0003A2                     l60:
   798                           
   799                           ; BSR set to: 0
   800                           ;main.c: 192: LATCbits.LATC4 = 0;
   801  0003A2  988B               	bcf	3979,4,c	;volatile
   802  0003A4                     L5:
   803                           
   804                           ;main.c: 193: LATCbits.LATC5 = 0;
   805  0003A4  9A8B               	bcf	3979,5,c	;volatile
   806  0003A6                     l1270:
   807                           
   808                           ; BSR set to: 0
   809                           ;main.c: 194: }
   810                           ;main.c: 197: if (actuator5 < retract)
   811  0003A6  0100               	movlb	0	; () banked
   812  0003A8  5173               	movf	main@retract& (0+255),w,b
   813  0003AA  0100               	movlb	0	; () banked
   814  0003AC  5D6D               	subwf	main@actuator5& (0+255),w,b
   815  0003AE  0100               	movlb	0	; () banked
   816  0003B0  5174               	movf	(main@retract+1)& (0+255),w,b
   817  0003B2  0100               	movlb	0	; () banked
   818  0003B4  596E               	subwfb	(main@actuator5+1)& (0+255),w,b
   819  0003B6  B0D8               	btfsc	status,0,c
   820  0003B8  D003               	goto	l1274
   821                           
   822                           ; BSR set to: 0
   823                           ;main.c: 198: {
   824                           ;main.c: 199: LATCbits.LATC6 = 0;
   825  0003BA  9C8B               	bcf	3979,6,c	;volatile
   826                           
   827                           ;main.c: 200: LATCbits.LATC7 = 1;
   828  0003BC  8E8B               	bsf	3979,7,c	;volatile
   829                           
   830                           ;main.c: 201: } else if (actuator5 > retract)
   831  0003BE  D00E               	goto	l1278
   832  0003C0                     l1274:
   833                           
   834                           ; BSR set to: 0
   835  0003C0  0100               	movlb	0	; () banked
   836  0003C2  516D               	movf	main@actuator5& (0+255),w,b
   837  0003C4  0100               	movlb	0	; () banked
   838  0003C6  5D73               	subwf	main@retract& (0+255),w,b
   839  0003C8  0100               	movlb	0	; () banked
   840  0003CA  516E               	movf	(main@actuator5+1)& (0+255),w,b
   841  0003CC  0100               	movlb	0	; () banked
   842  0003CE  5974               	subwfb	(main@retract+1)& (0+255),w,b
   843  0003D0  B0D8               	btfsc	status,0,c
   844  0003D2  D002               	goto	l64
   845                           
   846                           ; BSR set to: 0
   847                           ;main.c: 202: {
   848                           ;main.c: 203: LATCbits.LATC6 = 1;
   849  0003D4  8C8B               	bsf	3979,6,c	;volatile
   850  0003D6  D001               	goto	L6
   851  0003D8                     l64:
   852                           
   853                           ; BSR set to: 0
   854                           ;main.c: 206: LATCbits.LATC6 = 0;
   855  0003D8  9C8B               	bcf	3979,6,c	;volatile
   856  0003DA                     L6:
   857                           
   858                           ;main.c: 207: LATCbits.LATC7 = 0;
   859  0003DA  9E8B               	bcf	3979,7,c	;volatile
   860  0003DC                     l1278:
   861                           
   862                           ; BSR set to: 0
   863                           ;main.c: 208: }
   864                           ;main.c: 211: if (actuator6 < extend)
   865  0003DC  0100               	movlb	0	; () banked
   866  0003DE  5175               	movf	main@extend& (0+255),w,b
   867  0003E0  0100               	movlb	0	; () banked
   868  0003E2  5D6F               	subwf	main@actuator6& (0+255),w,b
   869  0003E4  0100               	movlb	0	; () banked
   870  0003E6  5176               	movf	(main@extend+1)& (0+255),w,b
   871  0003E8  0100               	movlb	0	; () banked
   872  0003EA  5970               	subwfb	(main@actuator6+1)& (0+255),w,b
   873  0003EC  B0D8               	btfsc	status,0,c
   874  0003EE  D003               	goto	l1282
   875                           
   876                           ; BSR set to: 0
   877                           ;main.c: 212: {
   878                           ;main.c: 213: LATDbits.LATD4 = 0;
   879  0003F0  988C               	bcf	3980,4,c	;volatile
   880                           
   881                           ;main.c: 214: LATDbits.LATD5 = 1;
   882  0003F2  8A8C               	bsf	3980,5,c	;volatile
   883                           
   884                           ;main.c: 215: } else if (actuator6 > extend)
   885  0003F4  D00E               	goto	l1286
   886  0003F6                     l1282:
   887                           
   888                           ; BSR set to: 0
   889  0003F6  0100               	movlb	0	; () banked
   890  0003F8  516F               	movf	main@actuator6& (0+255),w,b
   891  0003FA  0100               	movlb	0	; () banked
   892  0003FC  5D75               	subwf	main@extend& (0+255),w,b
   893  0003FE  0100               	movlb	0	; () banked
   894  000400  5170               	movf	(main@actuator6+1)& (0+255),w,b
   895  000402  0100               	movlb	0	; () banked
   896  000404  5976               	subwfb	(main@extend+1)& (0+255),w,b
   897  000406  B0D8               	btfsc	status,0,c
   898  000408  D002               	goto	l68
   899                           
   900                           ; BSR set to: 0
   901                           ;main.c: 216: {
   902                           ;main.c: 217: LATDbits.LATD4 = 1;
   903  00040A  888C               	bsf	3980,4,c	;volatile
   904  00040C  D001               	goto	L7
   905  00040E                     l68:
   906                           
   907                           ; BSR set to: 0
   908                           ;main.c: 220: LATDbits.LATD4 = 0;
   909  00040E  988C               	bcf	3980,4,c	;volatile
   910  000410                     L7:
   911                           
   912                           ;main.c: 221: LATDbits.LATD5 = 0;
   913  000410  9A8C               	bcf	3980,5,c	;volatile
   914  000412                     l1286:
   915                           
   916                           ; BSR set to: 0
   917                           ;main.c: 222: }
   918                           ;main.c: 225: if (actuator7 < retract)
   919  000412  0100               	movlb	0	; () banked
   920  000414  5173               	movf	main@retract& (0+255),w,b
   921  000416  0100               	movlb	0	; () banked
   922  000418  5D71               	subwf	main@actuator7& (0+255),w,b
   923  00041A  0100               	movlb	0	; () banked
   924  00041C  5174               	movf	(main@retract+1)& (0+255),w,b
   925  00041E  0100               	movlb	0	; () banked
   926  000420  5972               	subwfb	(main@actuator7+1)& (0+255),w,b
   927  000422  A0D8               	btfss	status,0,c
   928  000424  D28C               	goto	l1436
   929                           
   930                           ; BSR set to: 0
   931                           
   932                           ; BSR set to: 0
   933                           
   934                           ;main.c: 229: } else if (actuator7 > retract)
   935                           
   936                           ;main.c: 228: LATDbits.LATD7 = 1;
   937                           
   938                           ; BSR set to: 0
   939                           ;main.c: 226: {
   940                           ;main.c: 227: LATDbits.LATD6 = 0;
   941  000426  0100               	movlb	0	; () banked
   942  000428  5171               	movf	main@actuator7& (0+255),w,b
   943  00042A  0100               	movlb	0	; () banked
   944  00042C  5D73               	subwf	main@retract& (0+255),w,b
   945  00042E  0100               	movlb	0	; () banked
   946  000430  5172               	movf	(main@actuator7+1)& (0+255),w,b
   947  000432  0100               	movlb	0	; () banked
   948  000434  5974               	subwfb	(main@retract+1)& (0+255),w,b
   949  000436  A0D8               	btfss	status,0,c
   950  000438  D148               	goto	l1368
   951                           
   952                           ;main.c: 233: } else {
   953                           
   954                           ;main.c: 232: LATDbits.LATD7 = 0;
   955                           
   956                           ; BSR set to: 0
   957                           ;main.c: 230: {
   958                           ;main.c: 231: LATDbits.LATD6 = 1;
   959  00043A  D285               	goto	l143
   960  00043C                     l1294:
   961                           
   962                           ; BSR set to: 0
   963  00043C  0100               	movlb	0	; () banked
   964  00043E  0561               	decf	main@BACK& (0+255),w,b
   965  000440  A4D8               	btfss	status,2,c
   966  000442  D145               	goto	l1370
   967                           
   968                           ; BSR set to: 0
   969  000444  0100               	movlb	0	; () banked
   970  000446  5160               	movf	main@FORW& (0+255),w,b
   971  000448  0100               	movlb	0	; () banked
   972  00044A  A4D8               	btfss	status,2,c
   973  00044C  D140               	goto	l1370
   974                           
   975                           ; BSR set to: 0
   976                           ;main.c: 241: if ((actuator0 == actuator2 == actuator5 == actuator7 == extend) &&
   977                           ;main.c: 242: (actuator1 == actuator3 == actuator4 == actuator6 == retract))
   978  00044E  0100               	movlb	0	; () banked
   979  000450  5167               	movf	main@actuator2& (0+255),w,b
   980  000452  0100               	movlb	0	; () banked
   981  000454  1963               	xorwf	main@actuator0& (0+255),w,b
   982  000456  E108               	bnz	u1310
   983  000458  0100               	movlb	0	; () banked
   984  00045A  5168               	movf	(main@actuator2+1)& (0+255),w,b
   985  00045C  0100               	movlb	0	; () banked
   986  00045E  1964               	xorwf	(main@actuator0+1)& (0+255),w,b
   987  000460  A4D8               	btfss	status,2,c
   988  000462  D002               	goto	u1310
   989  000464  0E01               	movlw	1
   990  000466  D001               	goto	u1320
   991  000468                     u1310:
   992  000468  0E00               	movlw	0
   993  00046A                     u1320:
   994  00046A  6E24               	movwf	??_main& (0+255),c
   995  00046C  6A25               	clrf	(??_main+1)& (0+255),c
   996  00046E  0100               	movlb	0	; () banked
   997  000470  516D               	movf	main@actuator5& (0+255),w,b
   998  000472  1824               	xorwf	??_main,w,c
   999  000474  E107               	bnz	u1330
  1000  000476  0100               	movlb	0	; () banked
  1001  000478  516E               	movf	(main@actuator5+1)& (0+255),w,b
  1002  00047A  1825               	xorwf	??_main+1,w,c
  1003  00047C  A4D8               	btfss	status,2,c
  1004  00047E  D002               	goto	u1330
  1005  000480  0E01               	movlw	1
  1006  000482  D001               	goto	u1340
  1007  000484                     u1330:
  1008  000484  0E00               	movlw	0
  1009  000486                     u1340:
  1010  000486  6E26               	movwf	(??_main+2)& (0+255),c
  1011  000488  6A27               	clrf	(??_main+3)& (0+255),c
  1012  00048A  0100               	movlb	0	; () banked
  1013  00048C  5171               	movf	main@actuator7& (0+255),w,b
  1014  00048E  1826               	xorwf	??_main+2,w,c
  1015  000490  E107               	bnz	u1350
  1016  000492  0100               	movlb	0	; () banked
  1017  000494  5172               	movf	(main@actuator7+1)& (0+255),w,b
  1018  000496  1827               	xorwf	??_main+3,w,c
  1019  000498  A4D8               	btfss	status,2,c
  1020  00049A  D002               	goto	u1350
  1021  00049C  0E01               	movlw	1
  1022  00049E  D001               	goto	u1360
  1023  0004A0                     u1350:
  1024  0004A0  0E00               	movlw	0
  1025  0004A2                     u1360:
  1026  0004A2  6E28               	movwf	(??_main+4)& (0+255),c
  1027  0004A4  6A29               	clrf	(??_main+5)& (0+255),c
  1028  0004A6  0100               	movlb	0	; () banked
  1029  0004A8  5175               	movf	main@extend& (0+255),w,b
  1030  0004AA  1828               	xorwf	??_main+4,w,c
  1031  0004AC  E13A               	bnz	l1304
  1032  0004AE  0100               	movlb	0	; () banked
  1033  0004B0  5176               	movf	(main@extend+1)& (0+255),w,b
  1034  0004B2  1829               	xorwf	??_main+5,w,c
  1035  0004B4  A4D8               	btfss	status,2,c
  1036  0004B6  D035               	goto	l1304
  1037                           
  1038                           ; BSR set to: 0
  1039  0004B8  0100               	movlb	0	; () banked
  1040  0004BA  5169               	movf	main@actuator3& (0+255),w,b
  1041  0004BC  0100               	movlb	0	; () banked
  1042  0004BE  1965               	xorwf	main@actuator1& (0+255),w,b
  1043  0004C0  E108               	bnz	u1380
  1044  0004C2  0100               	movlb	0	; () banked
  1045  0004C4  516A               	movf	(main@actuator3+1)& (0+255),w,b
  1046  0004C6  0100               	movlb	0	; () banked
  1047  0004C8  1966               	xorwf	(main@actuator1+1)& (0+255),w,b
  1048  0004CA  A4D8               	btfss	status,2,c
  1049  0004CC  D002               	goto	u1380
  1050  0004CE  0E01               	movlw	1
  1051  0004D0  D001               	goto	u1390
  1052  0004D2                     u1380:
  1053  0004D2  0E00               	movlw	0
  1054  0004D4                     u1390:
  1055  0004D4  6E24               	movwf	??_main& (0+255),c
  1056  0004D6  6A25               	clrf	(??_main+1)& (0+255),c
  1057  0004D8  0100               	movlb	0	; () banked
  1058  0004DA  516B               	movf	main@actuator4& (0+255),w,b
  1059  0004DC  1824               	xorwf	??_main,w,c
  1060  0004DE  E107               	bnz	u1400
  1061  0004E0  0100               	movlb	0	; () banked
  1062  0004E2  516C               	movf	(main@actuator4+1)& (0+255),w,b
  1063  0004E4  1825               	xorwf	??_main+1,w,c
  1064  0004E6  A4D8               	btfss	status,2,c
  1065  0004E8  D002               	goto	u1400
  1066  0004EA  0E01               	movlw	1
  1067  0004EC  D001               	goto	u1410
  1068  0004EE                     u1400:
  1069  0004EE  0E00               	movlw	0
  1070  0004F0                     u1410:
  1071  0004F0  6E26               	movwf	(??_main+2)& (0+255),c
  1072  0004F2  6A27               	clrf	(??_main+3)& (0+255),c
  1073  0004F4  0100               	movlb	0	; () banked
  1074  0004F6  516F               	movf	main@actuator6& (0+255),w,b
  1075  0004F8  1826               	xorwf	??_main+2,w,c
  1076  0004FA  E107               	bnz	u1420
  1077  0004FC  0100               	movlb	0	; () banked
  1078  0004FE  5170               	movf	(main@actuator6+1)& (0+255),w,b
  1079  000500  1827               	xorwf	??_main+3,w,c
  1080  000502  A4D8               	btfss	status,2,c
  1081  000504  D002               	goto	u1420
  1082  000506  0E01               	movlw	1
  1083  000508  D001               	goto	u1430
  1084  00050A                     u1420:
  1085  00050A  0E00               	movlw	0
  1086  00050C                     u1430:
  1087  00050C  6E28               	movwf	(??_main+4)& (0+255),c
  1088  00050E  6A29               	clrf	(??_main+5)& (0+255),c
  1089  000510  0100               	movlb	0	; () banked
  1090  000512  5173               	movf	main@retract& (0+255),w,b
  1091  000514  1828               	xorwf	??_main+4,w,c
  1092  000516  E105               	bnz	l1304
  1093  000518  0100               	movlb	0	; () banked
  1094  00051A  5174               	movf	(main@retract+1)& (0+255),w,b
  1095  00051C  1829               	xorwf	??_main+5,w,c
  1096  00051E  B4D8               	btfsc	status,2,c
  1097  000520  D140               	goto	l1374
  1098  000522                     l1304:
  1099                           
  1100                           ; BSR set to: 0
  1101                           ;main.c: 246: else
  1102                           ;main.c: 247: {
  1103                           ;main.c: 248: done = 0;
  1104  000522  0E00               	movlw	0
  1105  000524  0100               	movlb	0	; () banked
  1106  000526  6F62               	movwf	main@done& (0+255),b
  1107                           
  1108                           ; BSR set to: 0
  1109                           ;main.c: 255: if (actuator0 < extend)
  1110  000528  0100               	movlb	0	; () banked
  1111  00052A  5175               	movf	main@extend& (0+255),w,b
  1112  00052C  0100               	movlb	0	; () banked
  1113  00052E  5D63               	subwf	main@actuator0& (0+255),w,b
  1114  000530  0100               	movlb	0	; () banked
  1115  000532  5176               	movf	(main@extend+1)& (0+255),w,b
  1116  000534  0100               	movlb	0	; () banked
  1117  000536  5964               	subwfb	(main@actuator0+1)& (0+255),w,b
  1118  000538  B0D8               	btfsc	status,0,c
  1119  00053A  D003               	goto	l1310
  1120                           
  1121                           ; BSR set to: 0
  1122                           ;main.c: 256: {
  1123                           ;main.c: 257: LATCbits.LATC0 = 0;
  1124  00053C  908B               	bcf	3979,0,c	;volatile
  1125                           
  1126                           ;main.c: 258: LATCbits.LATC1 = 1;
  1127  00053E  828B               	bsf	3979,1,c	;volatile
  1128                           
  1129                           ;main.c: 259: } else if (actuator0 > extend)
  1130  000540  D00E               	goto	l1314
  1131  000542                     l1310:
  1132                           
  1133                           ; BSR set to: 0
  1134  000542  0100               	movlb	0	; () banked
  1135  000544  5163               	movf	main@actuator0& (0+255),w,b
  1136  000546  0100               	movlb	0	; () banked
  1137  000548  5D75               	subwf	main@extend& (0+255),w,b
  1138  00054A  0100               	movlb	0	; () banked
  1139  00054C  5164               	movf	(main@actuator0+1)& (0+255),w,b
  1140  00054E  0100               	movlb	0	; () banked
  1141  000550  5976               	subwfb	(main@extend+1)& (0+255),w,b
  1142  000552  B0D8               	btfsc	status,0,c
  1143  000554  D002               	goto	l80
  1144                           
  1145                           ; BSR set to: 0
  1146                           ;main.c: 260: {
  1147                           ;main.c: 261: LATCbits.LATC0 = 1;
  1148  000556  808B               	bsf	3979,0,c	;volatile
  1149  000558  D001               	goto	L10
  1150  00055A                     l80:
  1151                           
  1152                           ; BSR set to: 0
  1153                           ;main.c: 264: LATCbits.LATC0 = 0;
  1154  00055A  908B               	bcf	3979,0,c	;volatile
  1155  00055C                     L10:
  1156                           
  1157                           ;main.c: 265: LATCbits.LATC1 = 0;
  1158  00055C  928B               	bcf	3979,1,c	;volatile
  1159  00055E                     l1314:
  1160                           
  1161                           ; BSR set to: 0
  1162                           ;main.c: 266: }
  1163                           ;main.c: 269: if (actuator1 < retract)
  1164  00055E  0100               	movlb	0	; () banked
  1165  000560  5173               	movf	main@retract& (0+255),w,b
  1166  000562  0100               	movlb	0	; () banked
  1167  000564  5D65               	subwf	main@actuator1& (0+255),w,b
  1168  000566  0100               	movlb	0	; () banked
  1169  000568  5174               	movf	(main@retract+1)& (0+255),w,b
  1170  00056A  0100               	movlb	0	; () banked
  1171  00056C  5966               	subwfb	(main@actuator1+1)& (0+255),w,b
  1172  00056E  B0D8               	btfsc	status,0,c
  1173  000570  D003               	goto	l1318
  1174                           
  1175                           ; BSR set to: 0
  1176                           ;main.c: 270: {
  1177                           ;main.c: 271: LATCbits.LATC2 = 0;
  1178  000572  948B               	bcf	3979,2,c	;volatile
  1179                           
  1180                           ;main.c: 272: LATCbits.LATC3 = 1;
  1181  000574  868B               	bsf	3979,3,c	;volatile
  1182                           
  1183                           ;main.c: 273: } else if (actuator1 > retract)
  1184  000576  D00E               	goto	l1322
  1185  000578                     l1318:
  1186                           
  1187                           ; BSR set to: 0
  1188  000578  0100               	movlb	0	; () banked
  1189  00057A  5165               	movf	main@actuator1& (0+255),w,b
  1190  00057C  0100               	movlb	0	; () banked
  1191  00057E  5D73               	subwf	main@retract& (0+255),w,b
  1192  000580  0100               	movlb	0	; () banked
  1193  000582  5166               	movf	(main@actuator1+1)& (0+255),w,b
  1194  000584  0100               	movlb	0	; () banked
  1195  000586  5974               	subwfb	(main@retract+1)& (0+255),w,b
  1196  000588  B0D8               	btfsc	status,0,c
  1197  00058A  D002               	goto	l84
  1198                           
  1199                           ; BSR set to: 0
  1200                           ;main.c: 274: {
  1201                           ;main.c: 275: LATCbits.LATC2 = 1;
  1202  00058C  848B               	bsf	3979,2,c	;volatile
  1203  00058E  D001               	goto	L11
  1204  000590                     l84:
  1205                           
  1206                           ; BSR set to: 0
  1207                           ;main.c: 278: LATCbits.LATC2 = 0;
  1208  000590  948B               	bcf	3979,2,c	;volatile
  1209  000592                     L11:
  1210                           
  1211                           ;main.c: 279: LATCbits.LATC3 = 0;
  1212  000592  968B               	bcf	3979,3,c	;volatile
  1213  000594                     l1322:
  1214                           
  1215                           ; BSR set to: 0
  1216                           ;main.c: 280: }
  1217                           ;main.c: 283: if (actuator2 < extend)
  1218  000594  0100               	movlb	0	; () banked
  1219  000596  5175               	movf	main@extend& (0+255),w,b
  1220  000598  0100               	movlb	0	; () banked
  1221  00059A  5D67               	subwf	main@actuator2& (0+255),w,b
  1222  00059C  0100               	movlb	0	; () banked
  1223  00059E  5176               	movf	(main@extend+1)& (0+255),w,b
  1224  0005A0  0100               	movlb	0	; () banked
  1225  0005A2  5968               	subwfb	(main@actuator2+1)& (0+255),w,b
  1226  0005A4  B0D8               	btfsc	status,0,c
  1227  0005A6  D003               	goto	l1326
  1228                           
  1229                           ; BSR set to: 0
  1230                           ;main.c: 284: {
  1231                           ;main.c: 285: LATDbits.LATD0 = 0;
  1232  0005A8  908C               	bcf	3980,0,c	;volatile
  1233                           
  1234                           ;main.c: 286: LATDbits.LATD1 = 1;
  1235  0005AA  828C               	bsf	3980,1,c	;volatile
  1236                           
  1237                           ;main.c: 287: } else if (actuator2 > extend)
  1238  0005AC  D00E               	goto	l1330
  1239  0005AE                     l1326:
  1240                           
  1241                           ; BSR set to: 0
  1242  0005AE  0100               	movlb	0	; () banked
  1243  0005B0  5167               	movf	main@actuator2& (0+255),w,b
  1244  0005B2  0100               	movlb	0	; () banked
  1245  0005B4  5D75               	subwf	main@extend& (0+255),w,b
  1246  0005B6  0100               	movlb	0	; () banked
  1247  0005B8  5168               	movf	(main@actuator2+1)& (0+255),w,b
  1248  0005BA  0100               	movlb	0	; () banked
  1249  0005BC  5976               	subwfb	(main@extend+1)& (0+255),w,b
  1250  0005BE  B0D8               	btfsc	status,0,c
  1251  0005C0  D002               	goto	l88
  1252                           
  1253                           ; BSR set to: 0
  1254                           ;main.c: 288: {
  1255                           ;main.c: 289: LATDbits.LATD0 = 1;
  1256  0005C2  808C               	bsf	3980,0,c	;volatile
  1257  0005C4  D001               	goto	L12
  1258  0005C6                     l88:
  1259                           
  1260                           ; BSR set to: 0
  1261                           ;main.c: 292: LATDbits.LATD0 = 0;
  1262  0005C6  908C               	bcf	3980,0,c	;volatile
  1263  0005C8                     L12:
  1264                           
  1265                           ;main.c: 293: LATDbits.LATD1 = 0;
  1266  0005C8  928C               	bcf	3980,1,c	;volatile
  1267  0005CA                     l1330:
  1268                           
  1269                           ; BSR set to: 0
  1270                           ;main.c: 294: }
  1271                           ;main.c: 297: if (actuator3 < retract)
  1272  0005CA  0100               	movlb	0	; () banked
  1273  0005CC  5173               	movf	main@retract& (0+255),w,b
  1274  0005CE  0100               	movlb	0	; () banked
  1275  0005D0  5D69               	subwf	main@actuator3& (0+255),w,b
  1276  0005D2  0100               	movlb	0	; () banked
  1277  0005D4  5174               	movf	(main@retract+1)& (0+255),w,b
  1278  0005D6  0100               	movlb	0	; () banked
  1279  0005D8  596A               	subwfb	(main@actuator3+1)& (0+255),w,b
  1280  0005DA  B0D8               	btfsc	status,0,c
  1281  0005DC  D003               	goto	l1334
  1282                           
  1283                           ; BSR set to: 0
  1284                           ;main.c: 298: {
  1285                           ;main.c: 299: LATDbits.LATD2 = 0;
  1286  0005DE  948C               	bcf	3980,2,c	;volatile
  1287                           
  1288                           ;main.c: 300: LATDbits.LATD3 = 1;
  1289  0005E0  868C               	bsf	3980,3,c	;volatile
  1290                           
  1291                           ;main.c: 301: } else if (actuator3 > retract)
  1292  0005E2  D00E               	goto	l1338
  1293  0005E4                     l1334:
  1294                           
  1295                           ; BSR set to: 0
  1296  0005E4  0100               	movlb	0	; () banked
  1297  0005E6  5169               	movf	main@actuator3& (0+255),w,b
  1298  0005E8  0100               	movlb	0	; () banked
  1299  0005EA  5D73               	subwf	main@retract& (0+255),w,b
  1300  0005EC  0100               	movlb	0	; () banked
  1301  0005EE  516A               	movf	(main@actuator3+1)& (0+255),w,b
  1302  0005F0  0100               	movlb	0	; () banked
  1303  0005F2  5974               	subwfb	(main@retract+1)& (0+255),w,b
  1304  0005F4  B0D8               	btfsc	status,0,c
  1305  0005F6  D002               	goto	l92
  1306                           
  1307                           ; BSR set to: 0
  1308                           ;main.c: 302: {
  1309                           ;main.c: 303: LATDbits.LATD2 = 1;
  1310  0005F8  848C               	bsf	3980,2,c	;volatile
  1311  0005FA  D001               	goto	L13
  1312  0005FC                     l92:
  1313                           
  1314                           ; BSR set to: 0
  1315                           ;main.c: 306: LATDbits.LATD2 = 0;
  1316  0005FC  948C               	bcf	3980,2,c	;volatile
  1317  0005FE                     L13:
  1318                           
  1319                           ;main.c: 307: LATDbits.LATD3 = 0;
  1320  0005FE  968C               	bcf	3980,3,c	;volatile
  1321  000600                     l1338:
  1322                           
  1323                           ; BSR set to: 0
  1324                           ;main.c: 308: }
  1325                           ;main.c: 311: if (actuator4 < retract)
  1326  000600  0100               	movlb	0	; () banked
  1327  000602  5173               	movf	main@retract& (0+255),w,b
  1328  000604  0100               	movlb	0	; () banked
  1329  000606  5D6B               	subwf	main@actuator4& (0+255),w,b
  1330  000608  0100               	movlb	0	; () banked
  1331  00060A  5174               	movf	(main@retract+1)& (0+255),w,b
  1332  00060C  0100               	movlb	0	; () banked
  1333  00060E  596C               	subwfb	(main@actuator4+1)& (0+255),w,b
  1334  000610  B0D8               	btfsc	status,0,c
  1335  000612  D003               	goto	l1342
  1336                           
  1337                           ; BSR set to: 0
  1338                           ;main.c: 312: {
  1339                           ;main.c: 313: LATCbits.LATC4 = 0;
  1340  000614  988B               	bcf	3979,4,c	;volatile
  1341                           
  1342                           ;main.c: 314: LATCbits.LATC5 = 1;
  1343  000616  8A8B               	bsf	3979,5,c	;volatile
  1344                           
  1345                           ;main.c: 315: } else if (actuator4 > retract)
  1346  000618  D00E               	goto	l1346
  1347  00061A                     l1342:
  1348                           
  1349                           ; BSR set to: 0
  1350  00061A  0100               	movlb	0	; () banked
  1351  00061C  516B               	movf	main@actuator4& (0+255),w,b
  1352  00061E  0100               	movlb	0	; () banked
  1353  000620  5D73               	subwf	main@retract& (0+255),w,b
  1354  000622  0100               	movlb	0	; () banked
  1355  000624  516C               	movf	(main@actuator4+1)& (0+255),w,b
  1356  000626  0100               	movlb	0	; () banked
  1357  000628  5974               	subwfb	(main@retract+1)& (0+255),w,b
  1358  00062A  B0D8               	btfsc	status,0,c
  1359  00062C  D002               	goto	l96
  1360                           
  1361                           ; BSR set to: 0
  1362                           ;main.c: 316: {
  1363                           ;main.c: 317: LATCbits.LATC4 = 1;
  1364  00062E  888B               	bsf	3979,4,c	;volatile
  1365  000630  D001               	goto	L14
  1366  000632                     l96:
  1367                           
  1368                           ; BSR set to: 0
  1369                           ;main.c: 320: LATCbits.LATC4 = 0;
  1370  000632  988B               	bcf	3979,4,c	;volatile
  1371  000634                     L14:
  1372                           
  1373                           ;main.c: 321: LATCbits.LATC5 = 0;
  1374  000634  9A8B               	bcf	3979,5,c	;volatile
  1375  000636                     l1346:
  1376                           
  1377                           ; BSR set to: 0
  1378                           ;main.c: 322: }
  1379                           ;main.c: 325: if (actuator5 < extend)
  1380  000636  0100               	movlb	0	; () banked
  1381  000638  5175               	movf	main@extend& (0+255),w,b
  1382  00063A  0100               	movlb	0	; () banked
  1383  00063C  5D6D               	subwf	main@actuator5& (0+255),w,b
  1384  00063E  0100               	movlb	0	; () banked
  1385  000640  5176               	movf	(main@extend+1)& (0+255),w,b
  1386  000642  0100               	movlb	0	; () banked
  1387  000644  596E               	subwfb	(main@actuator5+1)& (0+255),w,b
  1388  000646  B0D8               	btfsc	status,0,c
  1389  000648  D003               	goto	l1350
  1390                           
  1391                           ; BSR set to: 0
  1392                           ;main.c: 326: {
  1393                           ;main.c: 327: LATCbits.LATC6 = 0;
  1394  00064A  9C8B               	bcf	3979,6,c	;volatile
  1395                           
  1396                           ;main.c: 328: LATCbits.LATC7 = 1;
  1397  00064C  8E8B               	bsf	3979,7,c	;volatile
  1398                           
  1399                           ;main.c: 329: } else if (actuator5 > extend)
  1400  00064E  D00E               	goto	l1354
  1401  000650                     l1350:
  1402                           
  1403                           ; BSR set to: 0
  1404  000650  0100               	movlb	0	; () banked
  1405  000652  516D               	movf	main@actuator5& (0+255),w,b
  1406  000654  0100               	movlb	0	; () banked
  1407  000656  5D75               	subwf	main@extend& (0+255),w,b
  1408  000658  0100               	movlb	0	; () banked
  1409  00065A  516E               	movf	(main@actuator5+1)& (0+255),w,b
  1410  00065C  0100               	movlb	0	; () banked
  1411  00065E  5976               	subwfb	(main@extend+1)& (0+255),w,b
  1412  000660  B0D8               	btfsc	status,0,c
  1413  000662  D002               	goto	l100
  1414                           
  1415                           ; BSR set to: 0
  1416                           ;main.c: 330: {
  1417                           ;main.c: 331: LATCbits.LATC6 = 1;
  1418  000664  8C8B               	bsf	3979,6,c	;volatile
  1419  000666  D001               	goto	L15
  1420  000668                     l100:
  1421                           
  1422                           ; BSR set to: 0
  1423                           ;main.c: 334: LATCbits.LATC6 = 0;
  1424  000668  9C8B               	bcf	3979,6,c	;volatile
  1425  00066A                     L15:
  1426                           
  1427                           ;main.c: 335: LATCbits.LATC7 = 0;
  1428  00066A  9E8B               	bcf	3979,7,c	;volatile
  1429  00066C                     l1354:
  1430                           
  1431                           ; BSR set to: 0
  1432                           ;main.c: 336: }
  1433                           ;main.c: 339: if (actuator6 < retract)
  1434  00066C  0100               	movlb	0	; () banked
  1435  00066E  5173               	movf	main@retract& (0+255),w,b
  1436  000670  0100               	movlb	0	; () banked
  1437  000672  5D6F               	subwf	main@actuator6& (0+255),w,b
  1438  000674  0100               	movlb	0	; () banked
  1439  000676  5174               	movf	(main@retract+1)& (0+255),w,b
  1440  000678  0100               	movlb	0	; () banked
  1441  00067A  5970               	subwfb	(main@actuator6+1)& (0+255),w,b
  1442  00067C  B0D8               	btfsc	status,0,c
  1443  00067E  D003               	goto	l1358
  1444                           
  1445                           ; BSR set to: 0
  1446                           ;main.c: 340: {
  1447                           ;main.c: 341: LATDbits.LATD4 = 0;
  1448  000680  988C               	bcf	3980,4,c	;volatile
  1449                           
  1450                           ;main.c: 342: LATDbits.LATD5 = 1;
  1451  000682  8A8C               	bsf	3980,5,c	;volatile
  1452                           
  1453                           ;main.c: 343: } else if (actuator6 > retract)
  1454  000684  D00E               	goto	l1362
  1455  000686                     l1358:
  1456                           
  1457                           ; BSR set to: 0
  1458  000686  0100               	movlb	0	; () banked
  1459  000688  516F               	movf	main@actuator6& (0+255),w,b
  1460  00068A  0100               	movlb	0	; () banked
  1461  00068C  5D73               	subwf	main@retract& (0+255),w,b
  1462  00068E  0100               	movlb	0	; () banked
  1463  000690  5170               	movf	(main@actuator6+1)& (0+255),w,b
  1464  000692  0100               	movlb	0	; () banked
  1465  000694  5974               	subwfb	(main@retract+1)& (0+255),w,b
  1466  000696  B0D8               	btfsc	status,0,c
  1467  000698  D002               	goto	l104
  1468                           
  1469                           ; BSR set to: 0
  1470                           ;main.c: 344: {
  1471                           ;main.c: 345: LATDbits.LATD4 = 1;
  1472  00069A  888C               	bsf	3980,4,c	;volatile
  1473  00069C  D001               	goto	L16
  1474  00069E                     l104:
  1475                           
  1476                           ; BSR set to: 0
  1477                           ;main.c: 348: LATDbits.LATD4 = 0;
  1478  00069E  988C               	bcf	3980,4,c	;volatile
  1479  0006A0                     L16:
  1480                           
  1481                           ;main.c: 349: LATDbits.LATD5 = 0;
  1482  0006A0  9A8C               	bcf	3980,5,c	;volatile
  1483  0006A2                     l1362:
  1484                           
  1485                           ; BSR set to: 0
  1486                           ;main.c: 350: }
  1487                           ;main.c: 353: if (actuator7 < extend)
  1488  0006A2  0100               	movlb	0	; () banked
  1489  0006A4  5175               	movf	main@extend& (0+255),w,b
  1490  0006A6  0100               	movlb	0	; () banked
  1491  0006A8  5D71               	subwf	main@actuator7& (0+255),w,b
  1492  0006AA  0100               	movlb	0	; () banked
  1493  0006AC  5176               	movf	(main@extend+1)& (0+255),w,b
  1494  0006AE  0100               	movlb	0	; () banked
  1495  0006B0  5972               	subwfb	(main@actuator7+1)& (0+255),w,b
  1496  0006B2  A0D8               	btfss	status,0,c
  1497  0006B4  D144               	goto	l1436
  1498  0006B6                     l1366:
  1499                           
  1500                           ; BSR set to: 0
  1501  0006B6  0100               	movlb	0	; () banked
  1502  0006B8  5171               	movf	main@actuator7& (0+255),w,b
  1503  0006BA  0100               	movlb	0	; () banked
  1504  0006BC  5D75               	subwf	main@extend& (0+255),w,b
  1505  0006BE  0100               	movlb	0	; () banked
  1506  0006C0  5172               	movf	(main@actuator7+1)& (0+255),w,b
  1507  0006C2  0100               	movlb	0	; () banked
  1508  0006C4  5976               	subwfb	(main@extend+1)& (0+255),w,b
  1509  0006C6  B0D8               	btfsc	status,0,c
  1510  0006C8  D13E               	goto	l143
  1511  0006CA                     l1368:
  1512                           
  1513                           ; BSR set to: 0
  1514                           ;main.c: 358: {
  1515                           ;main.c: 359: LATDbits.LATD6 = 1;
  1516  0006CA  8C8C               	bsf	3980,6,c	;volatile
  1517  0006CC  D13D               	goto	L26
  1518  0006CE                     l1370:
  1519                           
  1520                           ; BSR set to: 0
  1521                           ;main.c: 370: if ((actuator0 == actuator2 == actuator5 == actuator7 == extend) &&
  1522                           ;main.c: 371: (actuator1 == actuator3 == actuator4 == actuator6 == extend))
  1523  0006CE  0100               	movlb	0	; () banked
  1524  0006D0  5167               	movf	main@actuator2& (0+255),w,b
  1525  0006D2  0100               	movlb	0	; () banked
  1526  0006D4  1963               	xorwf	main@actuator0& (0+255),w,b
  1527  0006D6  E108               	bnz	u1610
  1528  0006D8  0100               	movlb	0	; () banked
  1529  0006DA  5168               	movf	(main@actuator2+1)& (0+255),w,b
  1530  0006DC  0100               	movlb	0	; () banked
  1531  0006DE  1964               	xorwf	(main@actuator0+1)& (0+255),w,b
  1532  0006E0  A4D8               	btfss	status,2,c
  1533  0006E2  D002               	goto	u1610
  1534  0006E4  0E01               	movlw	1
  1535  0006E6  D001               	goto	u1620
  1536  0006E8                     u1610:
  1537  0006E8  0E00               	movlw	0
  1538  0006EA                     u1620:
  1539  0006EA  6E24               	movwf	??_main& (0+255),c
  1540  0006EC  6A25               	clrf	(??_main+1)& (0+255),c
  1541  0006EE  0100               	movlb	0	; () banked
  1542  0006F0  516D               	movf	main@actuator5& (0+255),w,b
  1543  0006F2  1824               	xorwf	??_main,w,c
  1544  0006F4  E107               	bnz	u1630
  1545  0006F6  0100               	movlb	0	; () banked
  1546  0006F8  516E               	movf	(main@actuator5+1)& (0+255),w,b
  1547  0006FA  1825               	xorwf	??_main+1,w,c
  1548  0006FC  A4D8               	btfss	status,2,c
  1549  0006FE  D002               	goto	u1630
  1550  000700  0E01               	movlw	1
  1551  000702  D001               	goto	u1640
  1552  000704                     u1630:
  1553  000704  0E00               	movlw	0
  1554  000706                     u1640:
  1555  000706  6E26               	movwf	(??_main+2)& (0+255),c
  1556  000708  6A27               	clrf	(??_main+3)& (0+255),c
  1557  00070A  0100               	movlb	0	; () banked
  1558  00070C  5171               	movf	main@actuator7& (0+255),w,b
  1559  00070E  1826               	xorwf	??_main+2,w,c
  1560  000710  E107               	bnz	u1650
  1561  000712  0100               	movlb	0	; () banked
  1562  000714  5172               	movf	(main@actuator7+1)& (0+255),w,b
  1563  000716  1827               	xorwf	??_main+3,w,c
  1564  000718  A4D8               	btfss	status,2,c
  1565  00071A  D002               	goto	u1650
  1566  00071C  0E01               	movlw	1
  1567  00071E  D001               	goto	u1660
  1568  000720                     u1650:
  1569  000720  0E00               	movlw	0
  1570  000722                     u1660:
  1571  000722  6E28               	movwf	(??_main+4)& (0+255),c
  1572  000724  6A29               	clrf	(??_main+5)& (0+255),c
  1573  000726  0100               	movlb	0	; () banked
  1574  000728  5175               	movf	main@extend& (0+255),w,b
  1575  00072A  1828               	xorwf	??_main+4,w,c
  1576  00072C  E13E               	bnz	l1376
  1577  00072E  0100               	movlb	0	; () banked
  1578  000730  5176               	movf	(main@extend+1)& (0+255),w,b
  1579  000732  1829               	xorwf	??_main+5,w,c
  1580  000734  A4D8               	btfss	status,2,c
  1581  000736  D039               	goto	l1376
  1582                           
  1583                           ; BSR set to: 0
  1584  000738  0100               	movlb	0	; () banked
  1585  00073A  5169               	movf	main@actuator3& (0+255),w,b
  1586  00073C  0100               	movlb	0	; () banked
  1587  00073E  1965               	xorwf	main@actuator1& (0+255),w,b
  1588  000740  E108               	bnz	u1680
  1589  000742  0100               	movlb	0	; () banked
  1590  000744  516A               	movf	(main@actuator3+1)& (0+255),w,b
  1591  000746  0100               	movlb	0	; () banked
  1592  000748  1966               	xorwf	(main@actuator1+1)& (0+255),w,b
  1593  00074A  A4D8               	btfss	status,2,c
  1594  00074C  D002               	goto	u1680
  1595  00074E  0E01               	movlw	1
  1596  000750  D001               	goto	u1690
  1597  000752                     u1680:
  1598  000752  0E00               	movlw	0
  1599  000754                     u1690:
  1600  000754  6E24               	movwf	??_main& (0+255),c
  1601  000756  6A25               	clrf	(??_main+1)& (0+255),c
  1602  000758  0100               	movlb	0	; () banked
  1603  00075A  516B               	movf	main@actuator4& (0+255),w,b
  1604  00075C  1824               	xorwf	??_main,w,c
  1605  00075E  E107               	bnz	u1700
  1606  000760  0100               	movlb	0	; () banked
  1607  000762  516C               	movf	(main@actuator4+1)& (0+255),w,b
  1608  000764  1825               	xorwf	??_main+1,w,c
  1609  000766  A4D8               	btfss	status,2,c
  1610  000768  D002               	goto	u1700
  1611  00076A  0E01               	movlw	1
  1612  00076C  D001               	goto	u1710
  1613  00076E                     u1700:
  1614  00076E  0E00               	movlw	0
  1615  000770                     u1710:
  1616  000770  6E26               	movwf	(??_main+2)& (0+255),c
  1617  000772  6A27               	clrf	(??_main+3)& (0+255),c
  1618  000774  0100               	movlb	0	; () banked
  1619  000776  516F               	movf	main@actuator6& (0+255),w,b
  1620  000778  1826               	xorwf	??_main+2,w,c
  1621  00077A  E107               	bnz	u1720
  1622  00077C  0100               	movlb	0	; () banked
  1623  00077E  5170               	movf	(main@actuator6+1)& (0+255),w,b
  1624  000780  1827               	xorwf	??_main+3,w,c
  1625  000782  A4D8               	btfss	status,2,c
  1626  000784  D002               	goto	u1720
  1627  000786  0E01               	movlw	1
  1628  000788  D001               	goto	u1730
  1629  00078A                     u1720:
  1630  00078A  0E00               	movlw	0
  1631  00078C                     u1730:
  1632  00078C  6E28               	movwf	(??_main+4)& (0+255),c
  1633  00078E  6A29               	clrf	(??_main+5)& (0+255),c
  1634  000790  0100               	movlb	0	; () banked
  1635  000792  5175               	movf	main@extend& (0+255),w,b
  1636  000794  1828               	xorwf	??_main+4,w,c
  1637  000796  E109               	bnz	l1376
  1638  000798  0100               	movlb	0	; () banked
  1639  00079A  5176               	movf	(main@extend+1)& (0+255),w,b
  1640  00079C  1829               	xorwf	??_main+5,w,c
  1641  00079E  A4D8               	btfss	status,2,c
  1642  0007A0  D004               	goto	l1376
  1643  0007A2                     l1374:
  1644                           
  1645                           ; BSR set to: 0
  1646                           ;main.c: 372: {
  1647                           ;main.c: 373: done = 1;
  1648  0007A2  0E01               	movlw	1
  1649  0007A4  0100               	movlb	0	; () banked
  1650  0007A6  6F62               	movwf	main@done& (0+255),b
  1651                           
  1652                           ;main.c: 374: }
  1653  0007A8  D4C1               	goto	l1184
  1654  0007AA                     l1376:
  1655                           
  1656                           ; BSR set to: 0
  1657                           ;main.c: 376: else
  1658                           ;main.c: 377: {
  1659                           ;main.c: 378: done = 0;
  1660  0007AA  0E00               	movlw	0
  1661  0007AC  0100               	movlb	0	; () banked
  1662  0007AE  6F62               	movwf	main@done& (0+255),b
  1663                           
  1664                           ; BSR set to: 0
  1665                           ;main.c: 380: if (actuator0 < extend)
  1666  0007B0  0100               	movlb	0	; () banked
  1667  0007B2  5175               	movf	main@extend& (0+255),w,b
  1668  0007B4  0100               	movlb	0	; () banked
  1669  0007B6  5D63               	subwf	main@actuator0& (0+255),w,b
  1670  0007B8  0100               	movlb	0	; () banked
  1671  0007BA  5176               	movf	(main@extend+1)& (0+255),w,b
  1672  0007BC  0100               	movlb	0	; () banked
  1673  0007BE  5964               	subwfb	(main@actuator0+1)& (0+255),w,b
  1674  0007C0  B0D8               	btfsc	status,0,c
  1675  0007C2  D003               	goto	l1382
  1676                           
  1677                           ; BSR set to: 0
  1678                           ;main.c: 381: {
  1679                           ;main.c: 382: LATCbits.LATC0 = 0;
  1680  0007C4  908B               	bcf	3979,0,c	;volatile
  1681                           
  1682                           ;main.c: 383: LATCbits.LATC1 = 1;
  1683  0007C6  828B               	bsf	3979,1,c	;volatile
  1684                           
  1685                           ;main.c: 384: } else if (actuator0 > extend)
  1686  0007C8  D00E               	goto	l1386
  1687  0007CA                     l1382:
  1688                           
  1689                           ; BSR set to: 0
  1690  0007CA  0100               	movlb	0	; () banked
  1691  0007CC  5163               	movf	main@actuator0& (0+255),w,b
  1692  0007CE  0100               	movlb	0	; () banked
  1693  0007D0  5D75               	subwf	main@extend& (0+255),w,b
  1694  0007D2  0100               	movlb	0	; () banked
  1695  0007D4  5164               	movf	(main@actuator0+1)& (0+255),w,b
  1696  0007D6  0100               	movlb	0	; () banked
  1697  0007D8  5976               	subwfb	(main@extend+1)& (0+255),w,b
  1698  0007DA  B0D8               	btfsc	status,0,c
  1699  0007DC  D002               	goto	l115
  1700                           
  1701                           ; BSR set to: 0
  1702                           ;main.c: 385: {
  1703                           ;main.c: 386: LATCbits.LATC0 = 1;
  1704  0007DE  808B               	bsf	3979,0,c	;volatile
  1705  0007E0  D001               	goto	L19
  1706  0007E2                     l115:
  1707                           
  1708                           ; BSR set to: 0
  1709                           ;main.c: 389: LATCbits.LATC0 = 0;
  1710  0007E2  908B               	bcf	3979,0,c	;volatile
  1711  0007E4                     L19:
  1712                           
  1713                           ;main.c: 390: LATCbits.LATC1 = 0;
  1714  0007E4  928B               	bcf	3979,1,c	;volatile
  1715  0007E6                     l1386:
  1716                           
  1717                           ; BSR set to: 0
  1718                           ;main.c: 391: }
  1719                           ;main.c: 394: if (actuator1 < extend)
  1720  0007E6  0100               	movlb	0	; () banked
  1721  0007E8  5175               	movf	main@extend& (0+255),w,b
  1722  0007EA  0100               	movlb	0	; () banked
  1723  0007EC  5D65               	subwf	main@actuator1& (0+255),w,b
  1724  0007EE  0100               	movlb	0	; () banked
  1725  0007F0  5176               	movf	(main@extend+1)& (0+255),w,b
  1726  0007F2  0100               	movlb	0	; () banked
  1727  0007F4  5966               	subwfb	(main@actuator1+1)& (0+255),w,b
  1728  0007F6  B0D8               	btfsc	status,0,c
  1729  0007F8  D003               	goto	l1390
  1730                           
  1731                           ; BSR set to: 0
  1732                           ;main.c: 395: {
  1733                           ;main.c: 396: LATCbits.LATC2 = 0;
  1734  0007FA  948B               	bcf	3979,2,c	;volatile
  1735                           
  1736                           ;main.c: 397: LATCbits.LATC3 = 1;
  1737  0007FC  868B               	bsf	3979,3,c	;volatile
  1738                           
  1739                           ;main.c: 398: } else if (actuator1 > extend)
  1740  0007FE  D00E               	goto	l1394
  1741  000800                     l1390:
  1742                           
  1743                           ; BSR set to: 0
  1744  000800  0100               	movlb	0	; () banked
  1745  000802  5165               	movf	main@actuator1& (0+255),w,b
  1746  000804  0100               	movlb	0	; () banked
  1747  000806  5D75               	subwf	main@extend& (0+255),w,b
  1748  000808  0100               	movlb	0	; () banked
  1749  00080A  5166               	movf	(main@actuator1+1)& (0+255),w,b
  1750  00080C  0100               	movlb	0	; () banked
  1751  00080E  5976               	subwfb	(main@extend+1)& (0+255),w,b
  1752  000810  B0D8               	btfsc	status,0,c
  1753  000812  D002               	goto	l119
  1754                           
  1755                           ; BSR set to: 0
  1756                           ;main.c: 399: {
  1757                           ;main.c: 400: LATCbits.LATC2 = 1;
  1758  000814  848B               	bsf	3979,2,c	;volatile
  1759  000816  D001               	goto	L20
  1760  000818                     l119:
  1761                           
  1762                           ; BSR set to: 0
  1763                           ;main.c: 403: LATCbits.LATC2 = 0;
  1764  000818  948B               	bcf	3979,2,c	;volatile
  1765  00081A                     L20:
  1766                           
  1767                           ;main.c: 404: LATCbits.LATC3 = 0;
  1768  00081A  968B               	bcf	3979,3,c	;volatile
  1769  00081C                     l1394:
  1770                           
  1771                           ; BSR set to: 0
  1772                           ;main.c: 405: }
  1773                           ;main.c: 408: if (actuator2 < extend)
  1774  00081C  0100               	movlb	0	; () banked
  1775  00081E  5175               	movf	main@extend& (0+255),w,b
  1776  000820  0100               	movlb	0	; () banked
  1777  000822  5D67               	subwf	main@actuator2& (0+255),w,b
  1778  000824  0100               	movlb	0	; () banked
  1779  000826  5176               	movf	(main@extend+1)& (0+255),w,b
  1780  000828  0100               	movlb	0	; () banked
  1781  00082A  5968               	subwfb	(main@actuator2+1)& (0+255),w,b
  1782  00082C  B0D8               	btfsc	status,0,c
  1783  00082E  D003               	goto	l1398
  1784                           
  1785                           ; BSR set to: 0
  1786                           ;main.c: 409: {
  1787                           ;main.c: 410: LATDbits.LATD0 = 0;
  1788  000830  908C               	bcf	3980,0,c	;volatile
  1789                           
  1790                           ;main.c: 411: LATDbits.LATD1 = 1;
  1791  000832  828C               	bsf	3980,1,c	;volatile
  1792                           
  1793                           ;main.c: 412: } else if (actuator2 > extend)
  1794  000834  D00E               	goto	l1402
  1795  000836                     l1398:
  1796                           
  1797                           ; BSR set to: 0
  1798  000836  0100               	movlb	0	; () banked
  1799  000838  5167               	movf	main@actuator2& (0+255),w,b
  1800  00083A  0100               	movlb	0	; () banked
  1801  00083C  5D75               	subwf	main@extend& (0+255),w,b
  1802  00083E  0100               	movlb	0	; () banked
  1803  000840  5168               	movf	(main@actuator2+1)& (0+255),w,b
  1804  000842  0100               	movlb	0	; () banked
  1805  000844  5976               	subwfb	(main@extend+1)& (0+255),w,b
  1806  000846  B0D8               	btfsc	status,0,c
  1807  000848  D002               	goto	l123
  1808                           
  1809                           ; BSR set to: 0
  1810                           ;main.c: 413: {
  1811                           ;main.c: 414: LATDbits.LATD0 = 1;
  1812  00084A  808C               	bsf	3980,0,c	;volatile
  1813  00084C  D001               	goto	L21
  1814  00084E                     l123:
  1815                           
  1816                           ; BSR set to: 0
  1817                           ;main.c: 417: LATDbits.LATD0 = 0;
  1818  00084E  908C               	bcf	3980,0,c	;volatile
  1819  000850                     L21:
  1820                           
  1821                           ;main.c: 418: LATDbits.LATD1 = 0;
  1822  000850  928C               	bcf	3980,1,c	;volatile
  1823  000852                     l1402:
  1824                           
  1825                           ; BSR set to: 0
  1826                           ;main.c: 419: }
  1827                           ;main.c: 422: if (actuator3 < extend)
  1828  000852  0100               	movlb	0	; () banked
  1829  000854  5175               	movf	main@extend& (0+255),w,b
  1830  000856  0100               	movlb	0	; () banked
  1831  000858  5D69               	subwf	main@actuator3& (0+255),w,b
  1832  00085A  0100               	movlb	0	; () banked
  1833  00085C  5176               	movf	(main@extend+1)& (0+255),w,b
  1834  00085E  0100               	movlb	0	; () banked
  1835  000860  596A               	subwfb	(main@actuator3+1)& (0+255),w,b
  1836  000862  B0D8               	btfsc	status,0,c
  1837  000864  D003               	goto	l1406
  1838                           
  1839                           ; BSR set to: 0
  1840                           ;main.c: 423: {
  1841                           ;main.c: 424: LATDbits.LATD2 = 0;
  1842  000866  948C               	bcf	3980,2,c	;volatile
  1843                           
  1844                           ;main.c: 425: LATDbits.LATD3 = 1;
  1845  000868  868C               	bsf	3980,3,c	;volatile
  1846                           
  1847                           ;main.c: 426: } else if (actuator3 > extend)
  1848  00086A  D00E               	goto	l1410
  1849  00086C                     l1406:
  1850                           
  1851                           ; BSR set to: 0
  1852  00086C  0100               	movlb	0	; () banked
  1853  00086E  5169               	movf	main@actuator3& (0+255),w,b
  1854  000870  0100               	movlb	0	; () banked
  1855  000872  5D75               	subwf	main@extend& (0+255),w,b
  1856  000874  0100               	movlb	0	; () banked
  1857  000876  516A               	movf	(main@actuator3+1)& (0+255),w,b
  1858  000878  0100               	movlb	0	; () banked
  1859  00087A  5976               	subwfb	(main@extend+1)& (0+255),w,b
  1860  00087C  B0D8               	btfsc	status,0,c
  1861  00087E  D002               	goto	l127
  1862                           
  1863                           ; BSR set to: 0
  1864                           ;main.c: 427: {
  1865                           ;main.c: 428: LATDbits.LATD2 = 1;
  1866  000880  848C               	bsf	3980,2,c	;volatile
  1867  000882  D001               	goto	L22
  1868  000884                     l127:
  1869                           
  1870                           ; BSR set to: 0
  1871                           ;main.c: 431: LATDbits.LATD2 = 0;
  1872  000884  948C               	bcf	3980,2,c	;volatile
  1873  000886                     L22:
  1874                           
  1875                           ;main.c: 432: LATDbits.LATD3 = 0;
  1876  000886  968C               	bcf	3980,3,c	;volatile
  1877  000888                     l1410:
  1878                           
  1879                           ; BSR set to: 0
  1880                           ;main.c: 433: }
  1881                           ;main.c: 436: if (actuator4 < extend)
  1882  000888  0100               	movlb	0	; () banked
  1883  00088A  5175               	movf	main@extend& (0+255),w,b
  1884  00088C  0100               	movlb	0	; () banked
  1885  00088E  5D6B               	subwf	main@actuator4& (0+255),w,b
  1886  000890  0100               	movlb	0	; () banked
  1887  000892  5176               	movf	(main@extend+1)& (0+255),w,b
  1888  000894  0100               	movlb	0	; () banked
  1889  000896  596C               	subwfb	(main@actuator4+1)& (0+255),w,b
  1890  000898  B0D8               	btfsc	status,0,c
  1891  00089A  D003               	goto	l1414
  1892                           
  1893                           ; BSR set to: 0
  1894                           ;main.c: 437: {
  1895                           ;main.c: 438: LATCbits.LATC4 = 0;
  1896  00089C  988B               	bcf	3979,4,c	;volatile
  1897                           
  1898                           ;main.c: 439: LATCbits.LATC5 = 1;
  1899  00089E  8A8B               	bsf	3979,5,c	;volatile
  1900                           
  1901                           ;main.c: 440: } else if (actuator4 > extend)
  1902  0008A0  D00E               	goto	l1418
  1903  0008A2                     l1414:
  1904                           
  1905                           ; BSR set to: 0
  1906  0008A2  0100               	movlb	0	; () banked
  1907  0008A4  516B               	movf	main@actuator4& (0+255),w,b
  1908  0008A6  0100               	movlb	0	; () banked
  1909  0008A8  5D75               	subwf	main@extend& (0+255),w,b
  1910  0008AA  0100               	movlb	0	; () banked
  1911  0008AC  516C               	movf	(main@actuator4+1)& (0+255),w,b
  1912  0008AE  0100               	movlb	0	; () banked
  1913  0008B0  5976               	subwfb	(main@extend+1)& (0+255),w,b
  1914  0008B2  B0D8               	btfsc	status,0,c
  1915  0008B4  D002               	goto	l131
  1916                           
  1917                           ; BSR set to: 0
  1918                           ;main.c: 441: {
  1919                           ;main.c: 442: LATCbits.LATC4 = 1;
  1920  0008B6  888B               	bsf	3979,4,c	;volatile
  1921  0008B8  D001               	goto	L23
  1922  0008BA                     l131:
  1923                           
  1924                           ; BSR set to: 0
  1925                           ;main.c: 445: LATCbits.LATC4 = 0;
  1926  0008BA  988B               	bcf	3979,4,c	;volatile
  1927  0008BC                     L23:
  1928                           
  1929                           ;main.c: 446: LATCbits.LATC5 = 0;
  1930  0008BC  9A8B               	bcf	3979,5,c	;volatile
  1931  0008BE                     l1418:
  1932                           
  1933                           ; BSR set to: 0
  1934                           ;main.c: 447: }
  1935                           ;main.c: 450: if (actuator5 < extend)
  1936  0008BE  0100               	movlb	0	; () banked
  1937  0008C0  5175               	movf	main@extend& (0+255),w,b
  1938  0008C2  0100               	movlb	0	; () banked
  1939  0008C4  5D6D               	subwf	main@actuator5& (0+255),w,b
  1940  0008C6  0100               	movlb	0	; () banked
  1941  0008C8  5176               	movf	(main@extend+1)& (0+255),w,b
  1942  0008CA  0100               	movlb	0	; () banked
  1943  0008CC  596E               	subwfb	(main@actuator5+1)& (0+255),w,b
  1944  0008CE  B0D8               	btfsc	status,0,c
  1945  0008D0  D003               	goto	l1422
  1946                           
  1947                           ; BSR set to: 0
  1948                           ;main.c: 451: {
  1949                           ;main.c: 452: LATCbits.LATC6 = 0;
  1950  0008D2  9C8B               	bcf	3979,6,c	;volatile
  1951                           
  1952                           ;main.c: 453: LATCbits.LATC7 = 1;
  1953  0008D4  8E8B               	bsf	3979,7,c	;volatile
  1954                           
  1955                           ;main.c: 454: } else if (actuator5 > extend)
  1956  0008D6  D00E               	goto	l1426
  1957  0008D8                     l1422:
  1958                           
  1959                           ; BSR set to: 0
  1960  0008D8  0100               	movlb	0	; () banked
  1961  0008DA  516D               	movf	main@actuator5& (0+255),w,b
  1962  0008DC  0100               	movlb	0	; () banked
  1963  0008DE  5D75               	subwf	main@extend& (0+255),w,b
  1964  0008E0  0100               	movlb	0	; () banked
  1965  0008E2  516E               	movf	(main@actuator5+1)& (0+255),w,b
  1966  0008E4  0100               	movlb	0	; () banked
  1967  0008E6  5976               	subwfb	(main@extend+1)& (0+255),w,b
  1968  0008E8  B0D8               	btfsc	status,0,c
  1969  0008EA  D002               	goto	l135
  1970                           
  1971                           ; BSR set to: 0
  1972                           ;main.c: 455: {
  1973                           ;main.c: 456: LATCbits.LATC6 = 1;
  1974  0008EC  8C8B               	bsf	3979,6,c	;volatile
  1975  0008EE  D001               	goto	L24
  1976  0008F0                     l135:
  1977                           
  1978                           ; BSR set to: 0
  1979                           ;main.c: 459: LATCbits.LATC6 = 0;
  1980  0008F0  9C8B               	bcf	3979,6,c	;volatile
  1981  0008F2                     L24:
  1982                           
  1983                           ;main.c: 460: LATCbits.LATC7 = 0;
  1984  0008F2  9E8B               	bcf	3979,7,c	;volatile
  1985  0008F4                     l1426:
  1986                           
  1987                           ; BSR set to: 0
  1988                           ;main.c: 461: }
  1989                           ;main.c: 464: if (actuator6 < extend)
  1990  0008F4  0100               	movlb	0	; () banked
  1991  0008F6  5175               	movf	main@extend& (0+255),w,b
  1992  0008F8  0100               	movlb	0	; () banked
  1993  0008FA  5D6F               	subwf	main@actuator6& (0+255),w,b
  1994  0008FC  0100               	movlb	0	; () banked
  1995  0008FE  5176               	movf	(main@extend+1)& (0+255),w,b
  1996  000900  0100               	movlb	0	; () banked
  1997  000902  5970               	subwfb	(main@actuator6+1)& (0+255),w,b
  1998  000904  B0D8               	btfsc	status,0,c
  1999  000906  D003               	goto	l1430
  2000                           
  2001                           ; BSR set to: 0
  2002                           ;main.c: 465: {
  2003                           ;main.c: 466: LATDbits.LATD4 = 0;
  2004  000908  988C               	bcf	3980,4,c	;volatile
  2005                           
  2006                           ;main.c: 467: LATDbits.LATD5 = 1;
  2007  00090A  8A8C               	bsf	3980,5,c	;volatile
  2008                           
  2009                           ;main.c: 468: } else if (actuator6 > extend)
  2010  00090C  D00E               	goto	l1434
  2011  00090E                     l1430:
  2012                           
  2013                           ; BSR set to: 0
  2014  00090E  0100               	movlb	0	; () banked
  2015  000910  516F               	movf	main@actuator6& (0+255),w,b
  2016  000912  0100               	movlb	0	; () banked
  2017  000914  5D75               	subwf	main@extend& (0+255),w,b
  2018  000916  0100               	movlb	0	; () banked
  2019  000918  5170               	movf	(main@actuator6+1)& (0+255),w,b
  2020  00091A  0100               	movlb	0	; () banked
  2021  00091C  5976               	subwfb	(main@extend+1)& (0+255),w,b
  2022  00091E  B0D8               	btfsc	status,0,c
  2023  000920  D002               	goto	l139
  2024                           
  2025                           ; BSR set to: 0
  2026                           ;main.c: 469: {
  2027                           ;main.c: 470: LATDbits.LATD4 = 1;
  2028  000922  888C               	bsf	3980,4,c	;volatile
  2029  000924  D001               	goto	L25
  2030  000926                     l139:
  2031                           
  2032                           ; BSR set to: 0
  2033                           ;main.c: 473: LATDbits.LATD4 = 0;
  2034  000926  988C               	bcf	3980,4,c	;volatile
  2035  000928                     L25:
  2036                           
  2037                           ;main.c: 474: LATDbits.LATD5 = 0;
  2038  000928  9A8C               	bcf	3980,5,c	;volatile
  2039  00092A                     l1434:
  2040                           
  2041                           ; BSR set to: 0
  2042                           ;main.c: 475: }
  2043                           ;main.c: 478: if (actuator7 < extend)
  2044  00092A  0100               	movlb	0	; () banked
  2045  00092C  5175               	movf	main@extend& (0+255),w,b
  2046  00092E  0100               	movlb	0	; () banked
  2047  000930  5D71               	subwf	main@actuator7& (0+255),w,b
  2048  000932  0100               	movlb	0	; () banked
  2049  000934  5176               	movf	(main@extend+1)& (0+255),w,b
  2050  000936  0100               	movlb	0	; () banked
  2051  000938  5972               	subwfb	(main@actuator7+1)& (0+255),w,b
  2052  00093A  B0D8               	btfsc	status,0,c
  2053  00093C  D6BC               	goto	l1366
  2054  00093E                     l1436:
  2055                           
  2056                           ; BSR set to: 0
  2057                           ;main.c: 479: {
  2058                           ;main.c: 480: LATDbits.LATD6 = 0;
  2059  00093E  9C8C               	bcf	3980,6,c	;volatile
  2060                           
  2061                           ;main.c: 481: LATDbits.LATD7 = 1;
  2062  000940  8E8C               	bsf	3980,7,c	;volatile
  2063                           
  2064                           ;main.c: 482: } else if (actuator7 > extend)
  2065  000942  EF96  F000         	goto	l1184
  2066  000946                     l143:
  2067                           
  2068                           ; BSR set to: 0
  2069                           ;main.c: 487: LATDbits.LATD6 = 0;
  2070  000946  9C8C               	bcf	3980,6,c	;volatile
  2071  000948                     L26:
  2072                           
  2073                           ;main.c: 488: LATDbits.LATD7 = 0;
  2074  000948  9E8C               	bcf	3980,7,c	;volatile
  2075                           
  2076                           ; BSR set to: 0
  2077                           
  2078                           ; BSR set to: 0
  2079                           
  2080                           ; BSR set to: 0
  2081                           
  2082                           ; BSR set to: 0
  2083                           
  2084                           ; BSR set to: 0
  2085                           
  2086                           ; BSR set to: 0
  2087  00094A  EF96  F000         	goto	l1184
  2088  00094E                     __end_of_main:
  2089                           	opt stack 0
  2090                           status	equ	0xFD8
  2091                           
  2092 ;; *************** function _setAnalogIn *****************
  2093 ;; Defined at:
  2094 ;;		line 40 in file "system.c"
  2095 ;; Parameters:    Size  Location     Type
  2096 ;;		None
  2097 ;; Auto vars:     Size  Location     Type
  2098 ;;		None
  2099 ;; Return value:  Size  Location     Type
  2100 ;;                  1    wreg      void 
  2101 ;; Registers used:
  2102 ;;		None
  2103 ;; Tracked objects:
  2104 ;;		On entry : 0/0
  2105 ;;		On exit  : 0/0
  2106 ;;		Unchanged: 0/0
  2107 ;; Data sizes:     COMRAM   BANK0   BANK1   BANK2   BANK3   BANK4   BANK5   BANK6   BANK7   BANK8   BANK9  BANK10  BANK1
      +1  BANK12
  2108 ;;      Params:         0       0       0       0       0       0       0       0       0       0       0       0       
      +0       0
  2109 ;;      Locals:         0       0       0       0       0       0       0       0       0       0       0       0       
      +0       0
  2110 ;;      Temps:          0       0       0       0       0       0       0       0       0       0       0       0       
      +0       0
  2111 ;;      Totals:         0       0       0       0       0       0       0       0       0       0       0       0       
      +0       0
  2112 ;;Total ram usage:        0 bytes
  2113 ;; Hardware stack levels used:    1
  2114 ;; Hardware stack levels required when called:    2
  2115 ;; This function calls:
  2116 ;;		Nothing
  2117 ;; This function is called by:
  2118 ;;		_main
  2119 ;; This function uses a non-reentrant model
  2120 ;;
  2121                           
  2122                           	psect	text1
  2123  0009BA                     __ptext1:
  2124                           	opt stack 0
  2125  0009BA                     _setAnalogIn:
  2126                           	opt stack 28
  2127                           
  2128                           ;system.c: 43: ADCON1bits.PCFG = 0;
  2129                           
  2130                           ; BSR set to: 0
  2131                           ;incstack = 0
  2132  0009BA  90C1               	bcf	4033,0,c	;volatile
  2133  0009BC  92C1               	bcf	4033,1,c	;volatile
  2134  0009BE  94C1               	bcf	4033,2,c	;volatile
  2135  0009C0  96C1               	bcf	4033,3,c	;volatile
  2136                           
  2137                           ;system.c: 44: ADCON2bits.ADFM = 1;
  2138  0009C2  8EC0               	bsf	4032,7,c	;volatile
  2139                           
  2140                           ;system.c: 48: ADCON1bits.VCFG0 = 0;
  2141  0009C4  98C1               	bcf	4033,4,c	;volatile
  2142                           
  2143                           ;system.c: 49: ADCON1bits.VCFG1 = 0;
  2144  0009C6  9AC1               	bcf	4033,5,c	;volatile
  2145                           
  2146                           ;system.c: 52: ADCON2bits.ACQT2 = 0;
  2147  0009C8  9AC0               	bcf	4032,5,c	;volatile
  2148                           
  2149                           ;system.c: 53: ADCON2bits.ACQT1 = 1;
  2150  0009CA  88C0               	bsf	4032,4,c	;volatile
  2151                           
  2152                           ;system.c: 54: ADCON2bits.ACQT0 = 0;
  2153  0009CC  96C0               	bcf	4032,3,c	;volatile
  2154                           
  2155                           ;system.c: 57: ADCON2bits.ADCS2 = 0;
  2156  0009CE  94C0               	bcf	4032,2,c	;volatile
  2157                           
  2158                           ;system.c: 58: ADCON2bits.ADCS1 = 1;
  2159  0009D0  82C0               	bsf	4032,1,c	;volatile
  2160                           
  2161                           ;system.c: 59: ADCON2bits.ADCS0 = 0;
  2162  0009D2  90C0               	bcf	4032,0,c	;volatile
  2163                           
  2164                           ;system.c: 63: TRISAbits.TRISA0 = 1;
  2165  0009D4  8092               	bsf	3986,0,c	;volatile
  2166                           
  2167                           ;system.c: 64: TRISAbits.TRISA1 = 1;
  2168  0009D6  8292               	bsf	3986,1,c	;volatile
  2169                           
  2170                           ;system.c: 65: TRISAbits.TRISA2 = 1;
  2171  0009D8  8492               	bsf	3986,2,c	;volatile
  2172                           
  2173                           ;system.c: 66: TRISAbits.TRISA3 = 1;
  2174  0009DA  8692               	bsf	3986,3,c	;volatile
  2175                           
  2176                           ;system.c: 67: TRISAbits.TRISA5 = 1;
  2177  0009DC  8A92               	bsf	3986,5,c	;volatile
  2178                           
  2179                           ;system.c: 68: TRISEbits.TRISE0 = 1;
  2180  0009DE  8096               	bsf	3990,0,c	;volatile
  2181                           
  2182                           ;system.c: 69: TRISEbits.TRISE1 = 1;
  2183  0009E0  8296               	bsf	3990,1,c	;volatile
  2184                           
  2185                           ;system.c: 70: TRISEbits.TRISE2 = 1;
  2186  0009E2  8496               	bsf	3990,2,c	;volatile
  2187                           
  2188                           ;system.c: 71: TRISBbits.TRISB1 = 1;
  2189  0009E4  8293               	bsf	3987,1,c	;volatile
  2190                           
  2191                           ;system.c: 72: TRISBbits.TRISB4 = 1;
  2192  0009E6  8893               	bsf	3987,4,c	;volatile
  2193                           
  2194                           ;system.c: 73: TRISBbits.TRISB0 = 1;
  2195  0009E8  8093               	bsf	3987,0,c	;volatile
  2196                           
  2197                           ;system.c: 76: ADCON0bits.ADON = 1;
  2198  0009EA  80C2               	bsf	4034,0,c	;volatile
  2199  0009EC  0012               	return		;funcret
  2200  0009EE                     __end_of_setAnalogIn:
  2201                           	opt stack 0
  2202                           status	equ	0xFD8
  2203                           
  2204 ;; *************** function _setActuatorCntrl *****************
  2205 ;; Defined at:
  2206 ;;		line 79 in file "system.c"
  2207 ;; Parameters:    Size  Location     Type
  2208 ;;		None
  2209 ;; Auto vars:     Size  Location     Type
  2210 ;;		None
  2211 ;; Return value:  Size  Location     Type
  2212 ;;                  1    wreg      void 
  2213 ;; Registers used:
  2214 ;;		None
  2215 ;; Tracked objects:
  2216 ;;		On entry : 0/0
  2217 ;;		On exit  : 0/0
  2218 ;;		Unchanged: 0/0
  2219 ;; Data sizes:     COMRAM   BANK0   BANK1   BANK2   BANK3   BANK4   BANK5   BANK6   BANK7   BANK8   BANK9  BANK10  BANK1
      +1  BANK12
  2220 ;;      Params:         0       0       0       0       0       0       0       0       0       0       0       0       
      +0       0
  2221 ;;      Locals:         0       0       0       0       0       0       0       0       0       0       0       0       
      +0       0
  2222 ;;      Temps:          0       0       0       0       0       0       0       0       0       0       0       0       
      +0       0
  2223 ;;      Totals:         0       0       0       0       0       0       0       0       0       0       0       0       
      +0       0
  2224 ;;Total ram usage:        0 bytes
  2225 ;; Hardware stack levels used:    1
  2226 ;; Hardware stack levels required when called:    2
  2227 ;; This function calls:
  2228 ;;		Nothing
  2229 ;; This function is called by:
  2230 ;;		_main
  2231 ;; This function uses a non-reentrant model
  2232 ;;
  2233                           
  2234                           	psect	text2
  2235  0009EE                     __ptext2:
  2236                           	opt stack 0
  2237  0009EE                     _setActuatorCntrl:
  2238                           	opt stack 28
  2239                           
  2240                           ;system.c: 82: TRISDbits.TRISD0 = 0;
  2241                           
  2242                           ;incstack = 0
  2243  0009EE  9095               	bcf	3989,0,c	;volatile
  2244                           
  2245                           ;system.c: 83: TRISDbits.TRISD1 = 0;
  2246  0009F0  9295               	bcf	3989,1,c	;volatile
  2247                           
  2248                           ;system.c: 84: TRISDbits.TRISD2 = 0;
  2249  0009F2  9495               	bcf	3989,2,c	;volatile
  2250                           
  2251                           ;system.c: 85: TRISDbits.TRISD3 = 0;
  2252  0009F4  9695               	bcf	3989,3,c	;volatile
  2253                           
  2254                           ;system.c: 86: TRISDbits.TRISD4 = 0;
  2255  0009F6  9895               	bcf	3989,4,c	;volatile
  2256                           
  2257                           ;system.c: 87: TRISDbits.TRISD5 = 0;
  2258  0009F8  9A95               	bcf	3989,5,c	;volatile
  2259                           
  2260                           ;system.c: 88: TRISDbits.TRISD6 = 0;
  2261  0009FA  9C95               	bcf	3989,6,c	;volatile
  2262                           
  2263                           ;system.c: 89: TRISDbits.TRISD7 = 0;
  2264  0009FC  9E95               	bcf	3989,7,c	;volatile
  2265                           
  2266                           ;system.c: 91: TRISCbits.TRISC0 = 0;
  2267  0009FE  9094               	bcf	3988,0,c	;volatile
  2268                           
  2269                           ;system.c: 92: TRISCbits.TRISC1 = 0;
  2270  000A00  9294               	bcf	3988,1,c	;volatile
  2271                           
  2272                           ;system.c: 93: TRISCbits.TRISC2 = 0;
  2273  000A02  9494               	bcf	3988,2,c	;volatile
  2274                           
  2275                           ;system.c: 94: TRISCbits.TRISC3 = 0;
  2276  000A04  9694               	bcf	3988,3,c	;volatile
  2277                           
  2278                           ;system.c: 95: TRISCbits.TRISC4 = 0;
  2279  000A06  9894               	bcf	3988,4,c	;volatile
  2280                           
  2281                           ;system.c: 96: TRISCbits.TRISC5 = 0;
  2282  000A08  9A94               	bcf	3988,5,c	;volatile
  2283                           
  2284                           ;system.c: 97: TRISCbits.TRISC6 = 0;
  2285  000A0A  9C94               	bcf	3988,6,c	;volatile
  2286                           
  2287                           ;system.c: 98: TRISCbits.TRISC7 = 0;
  2288  000A0C  9E94               	bcf	3988,7,c	;volatile
  2289  000A0E  0012               	return		;funcret
  2290  000A10                     __end_of_setActuatorCntrl:
  2291                           	opt stack 0
  2292                           status	equ	0xFD8
  2293                           
  2294 ;; *************** function _selectAN7 *****************
  2295 ;; Defined at:
  2296 ;;		line 68 in file "ADC_Config.c"
  2297 ;; Parameters:    Size  Location     Type
  2298 ;;		None
  2299 ;; Auto vars:     Size  Location     Type
  2300 ;;		None
  2301 ;; Return value:  Size  Location     Type
  2302 ;;                  1    wreg      void 
  2303 ;; Registers used:
  2304 ;;		wreg, status,2
  2305 ;; Tracked objects:
  2306 ;;		On entry : 0/0
  2307 ;;		On exit  : 0/0
  2308 ;;		Unchanged: 0/0
  2309 ;; Data sizes:     COMRAM   BANK0   BANK1   BANK2   BANK3   BANK4   BANK5   BANK6   BANK7   BANK8   BANK9  BANK10  BANK1
      +1  BANK12
  2310 ;;      Params:         0       0       0       0       0       0       0       0       0       0       0       0       
      +0       0
  2311 ;;      Locals:         0       0       0       0       0       0       0       0       0       0       0       0       
      +0       0
  2312 ;;      Temps:          0       0       0       0       0       0       0       0       0       0       0       0       
      +0       0
  2313 ;;      Totals:         0       0       0       0       0       0       0       0       0       0       0       0       
      +0       0
  2314 ;;Total ram usage:        0 bytes
  2315 ;; Hardware stack levels used:    1
  2316 ;; Hardware stack levels required when called:    2
  2317 ;; This function calls:
  2318 ;;		Nothing
  2319 ;; This function is called by:
  2320 ;;		_main
  2321 ;; This function uses a non-reentrant model
  2322 ;;
  2323                           
  2324                           	psect	text3
  2325  000A40                     __ptext3:
  2326                           	opt stack 0
  2327  000A40                     _selectAN7:
  2328                           	opt stack 28
  2329                           
  2330                           ;ADC_Config.c: 70: ADCON0bits.CHS = 0x07;
  2331                           
  2332                           ;incstack = 0
  2333  000A40  50C2               	movf	4034,w,c	;volatile
  2334  000A42  0BC3               	andlw	-61
  2335  000A44  091C               	iorlw	28
  2336  000A46  6EC2               	movwf	4034,c	;volatile
  2337  000A48  0012               	return		;funcret
  2338  000A4A                     __end_of_selectAN7:
  2339                           	opt stack 0
  2340                           status	equ	0xFD8
  2341                           
  2342 ;; *************** function _selectAN6 *****************
  2343 ;; Defined at:
  2344 ;;		line 62 in file "ADC_Config.c"
  2345 ;; Parameters:    Size  Location     Type
  2346 ;;		None
  2347 ;; Auto vars:     Size  Location     Type
  2348 ;;		None
  2349 ;; Return value:  Size  Location     Type
  2350 ;;                  1    wreg      void 
  2351 ;; Registers used:
  2352 ;;		wreg, status,2
  2353 ;; Tracked objects:
  2354 ;;		On entry : 0/0
  2355 ;;		On exit  : 0/0
  2356 ;;		Unchanged: 0/0
  2357 ;; Data sizes:     COMRAM   BANK0   BANK1   BANK2   BANK3   BANK4   BANK5   BANK6   BANK7   BANK8   BANK9  BANK10  BANK1
      +1  BANK12
  2358 ;;      Params:         0       0       0       0       0       0       0       0       0       0       0       0       
      +0       0
  2359 ;;      Locals:         0       0       0       0       0       0       0       0       0       0       0       0       
      +0       0
  2360 ;;      Temps:          0       0       0       0       0       0       0       0       0       0       0       0       
      +0       0
  2361 ;;      Totals:         0       0       0       0       0       0       0       0       0       0       0       0       
      +0       0
  2362 ;;Total ram usage:        0 bytes
  2363 ;; Hardware stack levels used:    1
  2364 ;; Hardware stack levels required when called:    2
  2365 ;; This function calls:
  2366 ;;		Nothing
  2367 ;; This function is called by:
  2368 ;;		_main
  2369 ;; This function uses a non-reentrant model
  2370 ;;
  2371                           
  2372                           	psect	text4
  2373  000A4A                     __ptext4:
  2374                           	opt stack 0
  2375  000A4A                     _selectAN6:
  2376                           	opt stack 28
  2377                           
  2378                           ;ADC_Config.c: 64: ADCON0bits.CHS = 0x06;
  2379                           
  2380                           ;incstack = 0
  2381  000A4A  50C2               	movf	4034,w,c	;volatile
  2382  000A4C  0BC3               	andlw	-61
  2383  000A4E  0918               	iorlw	24
  2384  000A50  6EC2               	movwf	4034,c	;volatile
  2385  000A52  0012               	return		;funcret
  2386  000A54                     __end_of_selectAN6:
  2387                           	opt stack 0
  2388                           status	equ	0xFD8
  2389                           
  2390 ;; *************** function _selectAN5 *****************
  2391 ;; Defined at:
  2392 ;;		line 56 in file "ADC_Config.c"
  2393 ;; Parameters:    Size  Location     Type
  2394 ;;		None
  2395 ;; Auto vars:     Size  Location     Type
  2396 ;;		None
  2397 ;; Return value:  Size  Location     Type
  2398 ;;                  1    wreg      void 
  2399 ;; Registers used:
  2400 ;;		wreg, status,2
  2401 ;; Tracked objects:
  2402 ;;		On entry : 0/0
  2403 ;;		On exit  : 0/0
  2404 ;;		Unchanged: 0/0
  2405 ;; Data sizes:     COMRAM   BANK0   BANK1   BANK2   BANK3   BANK4   BANK5   BANK6   BANK7   BANK8   BANK9  BANK10  BANK1
      +1  BANK12
  2406 ;;      Params:         0       0       0       0       0       0       0       0       0       0       0       0       
      +0       0
  2407 ;;      Locals:         0       0       0       0       0       0       0       0       0       0       0       0       
      +0       0
  2408 ;;      Temps:          0       0       0       0       0       0       0       0       0       0       0       0       
      +0       0
  2409 ;;      Totals:         0       0       0       0       0       0       0       0       0       0       0       0       
      +0       0
  2410 ;;Total ram usage:        0 bytes
  2411 ;; Hardware stack levels used:    1
  2412 ;; Hardware stack levels required when called:    2
  2413 ;; This function calls:
  2414 ;;		Nothing
  2415 ;; This function is called by:
  2416 ;;		_main
  2417 ;; This function uses a non-reentrant model
  2418 ;;
  2419                           
  2420                           	psect	text5
  2421  000A54                     __ptext5:
  2422                           	opt stack 0
  2423  000A54                     _selectAN5:
  2424                           	opt stack 28
  2425                           
  2426                           ;ADC_Config.c: 58: ADCON0bits.CHS = 0x05;
  2427                           
  2428                           ;incstack = 0
  2429  000A54  50C2               	movf	4034,w,c	;volatile
  2430  000A56  0BC3               	andlw	-61
  2431  000A58  0914               	iorlw	20
  2432  000A5A  6EC2               	movwf	4034,c	;volatile
  2433  000A5C  0012               	return		;funcret
  2434  000A5E                     __end_of_selectAN5:
  2435                           	opt stack 0
  2436                           status	equ	0xFD8
  2437                           
  2438 ;; *************** function _selectAN4 *****************
  2439 ;; Defined at:
  2440 ;;		line 50 in file "ADC_Config.c"
  2441 ;; Parameters:    Size  Location     Type
  2442 ;;		None
  2443 ;; Auto vars:     Size  Location     Type
  2444 ;;		None
  2445 ;; Return value:  Size  Location     Type
  2446 ;;                  1    wreg      void 
  2447 ;; Registers used:
  2448 ;;		wreg, status,2
  2449 ;; Tracked objects:
  2450 ;;		On entry : 0/0
  2451 ;;		On exit  : 0/0
  2452 ;;		Unchanged: 0/0
  2453 ;; Data sizes:     COMRAM   BANK0   BANK1   BANK2   BANK3   BANK4   BANK5   BANK6   BANK7   BANK8   BANK9  BANK10  BANK1
      +1  BANK12
  2454 ;;      Params:         0       0       0       0       0       0       0       0       0       0       0       0       
      +0       0
  2455 ;;      Locals:         0       0       0       0       0       0       0       0       0       0       0       0       
      +0       0
  2456 ;;      Temps:          0       0       0       0       0       0       0       0       0       0       0       0       
      +0       0
  2457 ;;      Totals:         0       0       0       0       0       0       0       0       0       0       0       0       
      +0       0
  2458 ;;Total ram usage:        0 bytes
  2459 ;; Hardware stack levels used:    1
  2460 ;; Hardware stack levels required when called:    2
  2461 ;; This function calls:
  2462 ;;		Nothing
  2463 ;; This function is called by:
  2464 ;;		_main
  2465 ;; This function uses a non-reentrant model
  2466 ;;
  2467                           
  2468                           	psect	text6
  2469  000A5E                     __ptext6:
  2470                           	opt stack 0
  2471  000A5E                     _selectAN4:
  2472                           	opt stack 28
  2473                           
  2474                           ;ADC_Config.c: 52: ADCON0bits.CHS = 0x04;
  2475                           
  2476                           ;incstack = 0
  2477  000A5E  50C2               	movf	4034,w,c	;volatile
  2478  000A60  0BC3               	andlw	-61
  2479  000A62  0910               	iorlw	16
  2480  000A64  6EC2               	movwf	4034,c	;volatile
  2481  000A66  0012               	return		;funcret
  2482  000A68                     __end_of_selectAN4:
  2483                           	opt stack 0
  2484                           status	equ	0xFD8
  2485                           
  2486 ;; *************** function _selectAN3 *****************
  2487 ;; Defined at:
  2488 ;;		line 44 in file "ADC_Config.c"
  2489 ;; Parameters:    Size  Location     Type
  2490 ;;		None
  2491 ;; Auto vars:     Size  Location     Type
  2492 ;;		None
  2493 ;; Return value:  Size  Location     Type
  2494 ;;                  1    wreg      void 
  2495 ;; Registers used:
  2496 ;;		wreg, status,2
  2497 ;; Tracked objects:
  2498 ;;		On entry : 0/0
  2499 ;;		On exit  : 0/0
  2500 ;;		Unchanged: 0/0
  2501 ;; Data sizes:     COMRAM   BANK0   BANK1   BANK2   BANK3   BANK4   BANK5   BANK6   BANK7   BANK8   BANK9  BANK10  BANK1
      +1  BANK12
  2502 ;;      Params:         0       0       0       0       0       0       0       0       0       0       0       0       
      +0       0
  2503 ;;      Locals:         0       0       0       0       0       0       0       0       0       0       0       0       
      +0       0
  2504 ;;      Temps:          0       0       0       0       0       0       0       0       0       0       0       0       
      +0       0
  2505 ;;      Totals:         0       0       0       0       0       0       0       0       0       0       0       0       
      +0       0
  2506 ;;Total ram usage:        0 bytes
  2507 ;; Hardware stack levels used:    1
  2508 ;; Hardware stack levels required when called:    2
  2509 ;; This function calls:
  2510 ;;		Nothing
  2511 ;; This function is called by:
  2512 ;;		_main
  2513 ;; This function uses a non-reentrant model
  2514 ;;
  2515                           
  2516                           	psect	text7
  2517  000A68                     __ptext7:
  2518                           	opt stack 0
  2519  000A68                     _selectAN3:
  2520                           	opt stack 28
  2521                           
  2522                           ;ADC_Config.c: 46: ADCON0bits.CHS = 0x03;
  2523                           
  2524                           ;incstack = 0
  2525  000A68  50C2               	movf	4034,w,c	;volatile
  2526  000A6A  0BC3               	andlw	-61
  2527  000A6C  090C               	iorlw	12
  2528  000A6E  6EC2               	movwf	4034,c	;volatile
  2529  000A70  0012               	return		;funcret
  2530  000A72                     __end_of_selectAN3:
  2531                           	opt stack 0
  2532                           status	equ	0xFD8
  2533                           
  2534 ;; *************** function _selectAN2 *****************
  2535 ;; Defined at:
  2536 ;;		line 38 in file "ADC_Config.c"
  2537 ;; Parameters:    Size  Location     Type
  2538 ;;		None
  2539 ;; Auto vars:     Size  Location     Type
  2540 ;;		None
  2541 ;; Return value:  Size  Location     Type
  2542 ;;                  1    wreg      void 
  2543 ;; Registers used:
  2544 ;;		wreg, status,2
  2545 ;; Tracked objects:
  2546 ;;		On entry : 0/0
  2547 ;;		On exit  : 0/0
  2548 ;;		Unchanged: 0/0
  2549 ;; Data sizes:     COMRAM   BANK0   BANK1   BANK2   BANK3   BANK4   BANK5   BANK6   BANK7   BANK8   BANK9  BANK10  BANK1
      +1  BANK12
  2550 ;;      Params:         0       0       0       0       0       0       0       0       0       0       0       0       
      +0       0
  2551 ;;      Locals:         0       0       0       0       0       0       0       0       0       0       0       0       
      +0       0
  2552 ;;      Temps:          0       0       0       0       0       0       0       0       0       0       0       0       
      +0       0
  2553 ;;      Totals:         0       0       0       0       0       0       0       0       0       0       0       0       
      +0       0
  2554 ;;Total ram usage:        0 bytes
  2555 ;; Hardware stack levels used:    1
  2556 ;; Hardware stack levels required when called:    2
  2557 ;; This function calls:
  2558 ;;		Nothing
  2559 ;; This function is called by:
  2560 ;;		_main
  2561 ;; This function uses a non-reentrant model
  2562 ;;
  2563                           
  2564                           	psect	text8
  2565  000A72                     __ptext8:
  2566                           	opt stack 0
  2567  000A72                     _selectAN2:
  2568                           	opt stack 28
  2569                           
  2570                           ;ADC_Config.c: 40: ADCON0bits.CHS = 0x02;
  2571                           
  2572                           ;incstack = 0
  2573  000A72  50C2               	movf	4034,w,c	;volatile
  2574  000A74  0BC3               	andlw	-61
  2575  000A76  0908               	iorlw	8
  2576  000A78  6EC2               	movwf	4034,c	;volatile
  2577  000A7A  0012               	return		;funcret
  2578  000A7C                     __end_of_selectAN2:
  2579                           	opt stack 0
  2580                           status	equ	0xFD8
  2581                           
  2582 ;; *************** function _selectAN1 *****************
  2583 ;; Defined at:
  2584 ;;		line 32 in file "ADC_Config.c"
  2585 ;; Parameters:    Size  Location     Type
  2586 ;;		None
  2587 ;; Auto vars:     Size  Location     Type
  2588 ;;		None
  2589 ;; Return value:  Size  Location     Type
  2590 ;;                  1    wreg      void 
  2591 ;; Registers used:
  2592 ;;		wreg, status,2
  2593 ;; Tracked objects:
  2594 ;;		On entry : 0/0
  2595 ;;		On exit  : 0/0
  2596 ;;		Unchanged: 0/0
  2597 ;; Data sizes:     COMRAM   BANK0   BANK1   BANK2   BANK3   BANK4   BANK5   BANK6   BANK7   BANK8   BANK9  BANK10  BANK1
      +1  BANK12
  2598 ;;      Params:         0       0       0       0       0       0       0       0       0       0       0       0       
      +0       0
  2599 ;;      Locals:         0       0       0       0       0       0       0       0       0       0       0       0       
      +0       0
  2600 ;;      Temps:          0       0       0       0       0       0       0       0       0       0       0       0       
      +0       0
  2601 ;;      Totals:         0       0       0       0       0       0       0       0       0       0       0       0       
      +0       0
  2602 ;;Total ram usage:        0 bytes
  2603 ;; Hardware stack levels used:    1
  2604 ;; Hardware stack levels required when called:    2
  2605 ;; This function calls:
  2606 ;;		Nothing
  2607 ;; This function is called by:
  2608 ;;		_main
  2609 ;; This function uses a non-reentrant model
  2610 ;;
  2611                           
  2612                           	psect	text9
  2613  000A7C                     __ptext9:
  2614                           	opt stack 0
  2615  000A7C                     _selectAN1:
  2616                           	opt stack 28
  2617                           
  2618                           ;ADC_Config.c: 34: ADCON0bits.CHS = 0x01;
  2619                           
  2620                           ;incstack = 0
  2621  000A7C  50C2               	movf	4034,w,c	;volatile
  2622  000A7E  0BC3               	andlw	-61
  2623  000A80  0904               	iorlw	4
  2624  000A82  6EC2               	movwf	4034,c	;volatile
  2625  000A84  0012               	return		;funcret
  2626  000A86                     __end_of_selectAN1:
  2627                           	opt stack 0
  2628                           status	equ	0xFD8
  2629                           
  2630 ;; *************** function _selectAN0 *****************
  2631 ;; Defined at:
  2632 ;;		line 26 in file "ADC_Config.c"
  2633 ;; Parameters:    Size  Location     Type
  2634 ;;		None
  2635 ;; Auto vars:     Size  Location     Type
  2636 ;;		None
  2637 ;; Return value:  Size  Location     Type
  2638 ;;                  1    wreg      void 
  2639 ;; Registers used:
  2640 ;;		None
  2641 ;; Tracked objects:
  2642 ;;		On entry : 0/0
  2643 ;;		On exit  : 0/0
  2644 ;;		Unchanged: 0/0
  2645 ;; Data sizes:     COMRAM   BANK0   BANK1   BANK2   BANK3   BANK4   BANK5   BANK6   BANK7   BANK8   BANK9  BANK10  BANK1
      +1  BANK12
  2646 ;;      Params:         0       0       0       0       0       0       0       0       0       0       0       0       
      +0       0
  2647 ;;      Locals:         0       0       0       0       0       0       0       0       0       0       0       0       
      +0       0
  2648 ;;      Temps:          0       0       0       0       0       0       0       0       0       0       0       0       
      +0       0
  2649 ;;      Totals:         0       0       0       0       0       0       0       0       0       0       0       0       
      +0       0
  2650 ;;Total ram usage:        0 bytes
  2651 ;; Hardware stack levels used:    1
  2652 ;; Hardware stack levels required when called:    2
  2653 ;; This function calls:
  2654 ;;		Nothing
  2655 ;; This function is called by:
  2656 ;;		_main
  2657 ;; This function uses a non-reentrant model
  2658 ;;
  2659                           
  2660                           	psect	text10
  2661  000A86                     __ptext10:
  2662                           	opt stack 0
  2663  000A86                     _selectAN0:
  2664                           	opt stack 28
  2665                           
  2666                           ;ADC_Config.c: 28: ADCON0bits.CHS = 0x00;
  2667                           
  2668                           ;incstack = 0
  2669  000A86  94C2               	bcf	4034,2,c	;volatile
  2670  000A88  96C2               	bcf	4034,3,c	;volatile
  2671  000A8A  98C2               	bcf	4034,4,c	;volatile
  2672  000A8C  9AC2               	bcf	4034,5,c	;volatile
  2673  000A8E  0012               	return		;funcret
  2674  000A90                     __end_of_selectAN0:
  2675                           	opt stack 0
  2676                           status	equ	0xFD8
  2677                           
  2678 ;; *************** function _readADC *****************
  2679 ;; Defined at:
  2680 ;;		line 73 in file "ADC_Config.c"
  2681 ;; Parameters:    Size  Location     Type
  2682 ;;		None
  2683 ;; Auto vars:     Size  Location     Type
  2684 ;;  digitalVal      2   33[COMRAM] unsigned int 
  2685 ;; Return value:  Size  Location     Type
  2686 ;;                  2   31[COMRAM] unsigned int 
  2687 ;; Registers used:
  2688 ;;		wreg, status,2
  2689 ;; Tracked objects:
  2690 ;;		On entry : 0/0
  2691 ;;		On exit  : 0/0
  2692 ;;		Unchanged: 0/0
  2693 ;; Data sizes:     COMRAM   BANK0   BANK1   BANK2   BANK3   BANK4   BANK5   BANK6   BANK7   BANK8   BANK9  BANK10  BANK1
      +1  BANK12
  2694 ;;      Params:         2       0       0       0       0       0       0       0       0       0       0       0       
      +0       0
  2695 ;;      Locals:         2       0       0       0       0       0       0       0       0       0       0       0       
      +0       0
  2696 ;;      Temps:          0       0       0       0       0       0       0       0       0       0       0       0       
      +0       0
  2697 ;;      Totals:         4       0       0       0       0       0       0       0       0       0       0       0       
      +0       0
  2698 ;;Total ram usage:        4 bytes
  2699 ;; Hardware stack levels used:    1
  2700 ;; Hardware stack levels required when called:    2
  2701 ;; This function calls:
  2702 ;;		Nothing
  2703 ;; This function is called by:
  2704 ;;		_main
  2705 ;; This function uses a non-reentrant model
  2706 ;;
  2707                           
  2708                           	psect	text11
  2709  000A10                     __ptext11:
  2710                           	opt stack 0
  2711  000A10                     _readADC:
  2712                           	opt stack 28
  2713                           
  2714                           ;ADC_Config.c: 75: unsigned int digitalVal;
  2715                           ;ADC_Config.c: 77: ADCON0bits.GO_NOT_DONE = 1;
  2716                           
  2717                           ;incstack = 0
  2718  000A10  82C2               	bsf	4034,1,c	;volatile
  2719  000A12                     l209:
  2720  000A12  B2C2               	btfsc	4034,1,c	;volatile
  2721  000A14  D7FE               	goto	l209
  2722                           
  2723                           ;ADC_Config.c: 83: digitalVal = ADRESL;
  2724  000A16  CFC3 F022          	movff	4035,readADC@digitalVal	;volatile
  2725  000A1A  6A23               	clrf	readADC@digitalVal+1,c
  2726                           
  2727                           ;ADC_Config.c: 84: digitalVal += ADRESH << 8;
  2728  000A1C  50C4               	movf	4036,w,c	;volatile
  2729  000A1E  2623               	addwf	readADC@digitalVal+1,f,c
  2730                           
  2731                           ;ADC_Config.c: 85: return digitalVal;
  2732  000A20  C022  F020         	movff	readADC@digitalVal,?_readADC
  2733  000A24  C023  F021         	movff	readADC@digitalVal+1,?_readADC+1
  2734  000A28  0012               	return	
  2735  000A2A                     __end_of_readADC:
  2736                           	opt stack 0
  2737                           status	equ	0xFD8
  2738                           
  2739 ;; *************** function _ConfigureOscillator *****************
  2740 ;; Defined at:
  2741 ;;		line 24 in file "system.c"
  2742 ;; Parameters:    Size  Location     Type
  2743 ;;		None
  2744 ;; Auto vars:     Size  Location     Type
  2745 ;;		None
  2746 ;; Return value:  Size  Location     Type
  2747 ;;                  1    wreg      void 
  2748 ;; Registers used:
  2749 ;;		None
  2750 ;; Tracked objects:
  2751 ;;		On entry : 0/0
  2752 ;;		On exit  : 0/0
  2753 ;;		Unchanged: 0/0
  2754 ;; Data sizes:     COMRAM   BANK0   BANK1   BANK2   BANK3   BANK4   BANK5   BANK6   BANK7   BANK8   BANK9  BANK10  BANK1
      +1  BANK12
  2755 ;;      Params:         0       0       0       0       0       0       0       0       0       0       0       0       
      +0       0
  2756 ;;      Locals:         0       0       0       0       0       0       0       0       0       0       0       0       
      +0       0
  2757 ;;      Temps:          0       0       0       0       0       0       0       0       0       0       0       0       
      +0       0
  2758 ;;      Totals:         0       0       0       0       0       0       0       0       0       0       0       0       
      +0       0
  2759 ;;Total ram usage:        0 bytes
  2760 ;; Hardware stack levels used:    1
  2761 ;; Hardware stack levels required when called:    2
  2762 ;; This function calls:
  2763 ;;		Nothing
  2764 ;; This function is called by:
  2765 ;;		_main
  2766 ;; This function uses a non-reentrant model
  2767 ;;
  2768                           
  2769                           	psect	text12
  2770  000A2A                     __ptext12:
  2771                           	opt stack 0
  2772  000A2A                     _ConfigureOscillator:
  2773                           	opt stack 28
  2774                           
  2775                           ;system.c: 31: OSCTUNEbits.PLLEN = 1;
  2776                           
  2777                           ;incstack = 0
  2778  000A2A  8C9B               	bsf	3995,6,c	;volatile
  2779                           
  2780                           ;system.c: 32: OSCCONbits.IRCF0 = 1;
  2781  000A2C  88D3               	bsf	4051,4,c	;volatile
  2782                           
  2783                           ;system.c: 33: OSCCONbits.IRCF1 = 1;
  2784  000A2E  8AD3               	bsf	4051,5,c	;volatile
  2785                           
  2786                           ;system.c: 34: OSCCONbits.IRCF2 = 1;
  2787  000A30  8CD3               	bsf	4051,6,c	;volatile
  2788                           
  2789                           ;system.c: 37: TRISAbits.TRISA6 = 0;
  2790  000A32  9C92               	bcf	3986,6,c	;volatile
  2791  000A34  0012               	return		;funcret
  2792  000A36                     __end_of_ConfigureOscillator:
  2793                           	opt stack 0
  2794                           status	equ	0xFD8
  2795                           
  2796 ;; *************** function _low_isr *****************
  2797 ;; Defined at:
  2798 ;;		line 67 in file "interrupts.c"
  2799 ;; Parameters:    Size  Location     Type
  2800 ;;		None
  2801 ;; Auto vars:     Size  Location     Type
  2802 ;;		None
  2803 ;; Return value:  Size  Location     Type
  2804 ;;                  1    wreg      void 
  2805 ;; Registers used:
  2806 ;;		None
  2807 ;; Tracked objects:
  2808 ;;		On entry : 0/0
  2809 ;;		On exit  : 0/0
  2810 ;;		Unchanged: 0/0
  2811 ;; Data sizes:     COMRAM   BANK0   BANK1   BANK2   BANK3   BANK4   BANK5   BANK6   BANK7   BANK8   BANK9  BANK10  BANK1
      +1  BANK12
  2812 ;;      Params:         0       0       0       0       0       0       0       0       0       0       0       0       
      +0       0
  2813 ;;      Locals:         0       0       0       0       0       0       0       0       0       0       0       0       
      +0       0
  2814 ;;      Temps:         17       0       0       0       0       0       0       0       0       0       0       0       
      +0       0
  2815 ;;      Totals:        17       0       0       0       0       0       0       0       0       0       0       0       
      +0       0
  2816 ;;Total ram usage:       17 bytes
  2817 ;; Hardware stack levels used:    1
  2818 ;; Hardware stack levels required when called:    1
  2819 ;; This function calls:
  2820 ;;		Nothing
  2821 ;; This function is called by:
  2822 ;;		Interrupt level 1
  2823 ;; This function uses a non-reentrant model
  2824 ;;
  2825                           
  2826                           	psect	intcodelo
  2827  000018                     __pintcodelo:
  2828                           	opt stack 0
  2829  000018                     _low_isr:
  2830                           	opt stack 28
  2831                           
  2832                           ;incstack = 0
  2833  000018  802A               	bsf	btemp,0,c	;set compiler interrupt flag (level 1)
  2834  00001A  CFD8 F00F          	movff	status,??_low_isr
  2835  00001E  CFE8 F010          	movff	wreg,??_low_isr+1
  2836  000022  CFE0 F011          	movff	bsr,??_low_isr+2
  2837  000026  CFFA F012          	movff	pclath,??_low_isr+3
  2838  00002A  CFFB F013          	movff	pclatu,??_low_isr+4
  2839  00002E  CFE9 F014          	movff	fsr0l,??_low_isr+5
  2840  000032  CFEA F015          	movff	fsr0h,??_low_isr+6
  2841  000036  CFE1 F016          	movff	fsr1l,??_low_isr+7
  2842  00003A  CFE2 F017          	movff	fsr1h,??_low_isr+8
  2843  00003E  CFD9 F018          	movff	fsr2l,??_low_isr+9
  2844  000042  CFDA F019          	movff	fsr2h,??_low_isr+10
  2845  000046  CFF3 F01A          	movff	prodl,??_low_isr+11
  2846  00004A  CFF4 F01B          	movff	prodh,??_low_isr+12
  2847  00004E  CFF6 F01C          	movff	tblptrl,??_low_isr+13
  2848  000052  CFF7 F01D          	movff	tblptrh,??_low_isr+14
  2849  000056  CFF8 F01E          	movff	tblptru,??_low_isr+15
  2850  00005A  CFF5 F01F          	movff	tablat,??_low_isr+16
  2851  00005E  C01F  FFF5         	movff	??_low_isr+16,tablat
  2852  000062  C01E  FFF8         	movff	??_low_isr+15,tblptru
  2853  000066  C01D  FFF7         	movff	??_low_isr+14,tblptrh
  2854  00006A  C01C  FFF6         	movff	??_low_isr+13,tblptrl
  2855  00006E  C01B  FFF4         	movff	??_low_isr+12,prodh
  2856  000072  C01A  FFF3         	movff	??_low_isr+11,prodl
  2857  000076  C019  FFDA         	movff	??_low_isr+10,fsr2h
  2858  00007A  C018  FFD9         	movff	??_low_isr+9,fsr2l
  2859  00007E  C017  FFE2         	movff	??_low_isr+8,fsr1h
  2860  000082  C016  FFE1         	movff	??_low_isr+7,fsr1l
  2861  000086  C015  FFEA         	movff	??_low_isr+6,fsr0h
  2862  00008A  C014  FFE9         	movff	??_low_isr+5,fsr0l
  2863  00008E  C013  FFFB         	movff	??_low_isr+4,pclatu
  2864  000092  C012  FFFA         	movff	??_low_isr+3,pclath
  2865  000096  C011  FFE0         	movff	??_low_isr+2,bsr
  2866  00009A  C010  FFE8         	movff	??_low_isr+1,wreg
  2867  00009E  C00F  FFD8         	movff	??_low_isr,status
  2868  0000A2  902A               	bcf	btemp,0,c	;clear compiler interrupt flag (level 1)
  2869  0000A4  0010               	retfie	
  2870  0000A6                     __end_of_low_isr:
  2871                           	opt stack 0
  2872                           pclatu	equ	0xFFB
  2873                           pclath	equ	0xFFA
  2874                           tblptru	equ	0xFF8
  2875                           tblptrh	equ	0xFF7
  2876                           tblptrl	equ	0xFF6
  2877                           tablat	equ	0xFF5
  2878                           prodh	equ	0xFF4
  2879                           prodl	equ	0xFF3
  2880                           fsr0h	equ	0xFEA
  2881                           fsr0l	equ	0xFE9
  2882                           wreg	equ	0xFE8
  2883                           fsr1h	equ	0xFE2
  2884                           fsr1l	equ	0xFE1
  2885                           bsr	equ	0xFE0
  2886                           fsr2h	equ	0xFDA
  2887                           fsr2l	equ	0xFD9
  2888                           status	equ	0xFD8
  2889                           
  2890 ;; *************** function _high_isr *****************
  2891 ;; Defined at:
  2892 ;;		line 27 in file "interrupts.c"
  2893 ;; Parameters:    Size  Location     Type
  2894 ;;		None
  2895 ;; Auto vars:     Size  Location     Type
  2896 ;;		None
  2897 ;; Return value:  Size  Location     Type
  2898 ;;                  1    wreg      void 
  2899 ;; Registers used:
  2900 ;;		None
  2901 ;; Tracked objects:
  2902 ;;		On entry : 0/0
  2903 ;;		On exit  : 0/0
  2904 ;;		Unchanged: 0/0
  2905 ;; Data sizes:     COMRAM   BANK0   BANK1   BANK2   BANK3   BANK4   BANK5   BANK6   BANK7   BANK8   BANK9  BANK10  BANK1
      +1  BANK12
  2906 ;;      Params:         0       0       0       0       0       0       0       0       0       0       0       0       
      +0       0
  2907 ;;      Locals:         0       0       0       0       0       0       0       0       0       0       0       0       
      +0       0
  2908 ;;      Temps:         14       0       0       0       0       0       0       0       0       0       0       0       
      +0       0
  2909 ;;      Totals:        14       0       0       0       0       0       0       0       0       0       0       0       
      +0       0
  2910 ;;Total ram usage:       14 bytes
  2911 ;; Hardware stack levels used:    1
  2912 ;; This function calls:
  2913 ;;		Nothing
  2914 ;; This function is called by:
  2915 ;;		Interrupt level 2
  2916 ;; This function uses a non-reentrant model
  2917 ;;
  2918                           
  2919                           	psect	intcode
  2920  000008                     __pintcode:
  2921                           	opt stack 0
  2922  000008                     _high_isr:
  2923                           	opt stack 28
  2924                           
  2925                           ;incstack = 0
  2926  000008  822A               	bsf	btemp,1,c	;set compiler interrupt flag (level 2)
  2927  00000A  CFFA F001          	movff	pclath,??_high_isr
  2928  00000E  CFFB F002          	movff	pclatu,??_high_isr+1
  2929  000012  EFA7  F004         	goto	int_func
  2930                           pclatu	equ	0xFFB
  2931                           pclath	equ	0xFFA
  2932                           tblptru	equ	0xFF8
  2933                           tblptrh	equ	0xFF7
  2934                           tblptrl	equ	0xFF6
  2935                           tablat	equ	0xFF5
  2936                           prodh	equ	0xFF4
  2937                           prodl	equ	0xFF3
  2938                           fsr0h	equ	0xFEA
  2939                           fsr0l	equ	0xFE9
  2940                           wreg	equ	0xFE8
  2941                           fsr1h	equ	0xFE2
  2942                           fsr1l	equ	0xFE1
  2943                           bsr	equ	0xFE0
  2944                           fsr2h	equ	0xFDA
  2945                           fsr2l	equ	0xFD9
  2946                           status	equ	0xFD8
  2947                           
  2948                           	psect	intcode_body
  2949  00094E                     __pintcode_body:
  2950                           	opt stack 28
  2951  00094E                     int_func:
  2952                           	opt stack 28
  2953  00094E  CFE9 F003          	movff	fsr0l,??_high_isr+2
  2954  000952  CFEA F004          	movff	fsr0h,??_high_isr+3
  2955  000956  CFE1 F005          	movff	fsr1l,??_high_isr+4
  2956  00095A  CFE2 F006          	movff	fsr1h,??_high_isr+5
  2957  00095E  CFD9 F007          	movff	fsr2l,??_high_isr+6
  2958  000962  CFDA F008          	movff	fsr2h,??_high_isr+7
  2959  000966  CFF3 F009          	movff	prodl,??_high_isr+8
  2960  00096A  CFF4 F00A          	movff	prodh,??_high_isr+9
  2961  00096E  CFF6 F00B          	movff	tblptrl,??_high_isr+10
  2962  000972  CFF7 F00C          	movff	tblptrh,??_high_isr+11
  2963  000976  CFF8 F00D          	movff	tblptru,??_high_isr+12
  2964  00097A  CFF5 F00E          	movff	tablat,??_high_isr+13
  2965  00097E  C00E  FFF5         	movff	??_high_isr+13,tablat
  2966  000982  C00D  FFF8         	movff	??_high_isr+12,tblptru
  2967  000986  C00C  FFF7         	movff	??_high_isr+11,tblptrh
  2968  00098A  C00B  FFF6         	movff	??_high_isr+10,tblptrl
  2969  00098E  C00A  FFF4         	movff	??_high_isr+9,prodh
  2970  000992  C009  FFF3         	movff	??_high_isr+8,prodl
  2971  000996  C008  FFDA         	movff	??_high_isr+7,fsr2h
  2972  00099A  C007  FFD9         	movff	??_high_isr+6,fsr2l
  2973  00099E  C006  FFE2         	movff	??_high_isr+5,fsr1h
  2974  0009A2  C005  FFE1         	movff	??_high_isr+4,fsr1l
  2975  0009A6  C004  FFEA         	movff	??_high_isr+3,fsr0h
  2976  0009AA  C003  FFE9         	movff	??_high_isr+2,fsr0l
  2977  0009AE  C002  FFFB         	movff	??_high_isr+1,pclatu
  2978  0009B2  C001  FFFA         	movff	??_high_isr,pclath
  2979  0009B6  922A               	bcf	btemp,1,c	;clear compiler interrupt flag (level 2)
  2980  0009B8  0011               	retfie		f
  2981  0009BA                     __end_of_high_isr:
  2982                           	opt stack 0
  2983  0000                     pclatu	equ	0xFFB
  2984                           pclath	equ	0xFFA
  2985                           tblptru	equ	0xFF8
  2986                           tblptrh	equ	0xFF7
  2987                           tblptrl	equ	0xFF6
  2988                           tablat	equ	0xFF5
  2989                           prodh	equ	0xFF4
  2990                           prodl	equ	0xFF3
  2991                           fsr0h	equ	0xFEA
  2992                           fsr0l	equ	0xFE9
  2993                           wreg	equ	0xFE8
  2994                           fsr1h	equ	0xFE2
  2995                           fsr1l	equ	0xFE1
  2996                           bsr	equ	0xFE0
  2997                           fsr2h	equ	0xFDA
  2998                           fsr2l	equ	0xFD9
  2999                           status	equ	0xFD8
  3000                           pclatu	equ	0xFFB
  3001                           pclath	equ	0xFFA
  3002                           tblptru	equ	0xFF8
  3003                           tblptrh	equ	0xFF7
  3004                           tblptrl	equ	0xFF6
  3005                           tablat	equ	0xFF5
  3006                           prodh	equ	0xFF4
  3007                           prodl	equ	0xFF3
  3008                           fsr0h	equ	0xFEA
  3009                           fsr0l	equ	0xFE9
  3010                           wreg	equ	0xFE8
  3011                           fsr1h	equ	0xFE2
  3012                           fsr1l	equ	0xFE1
  3013                           bsr	equ	0xFE0
  3014                           fsr2h	equ	0xFDA
  3015                           fsr2l	equ	0xFD9
  3016                           status	equ	0xFD8
  3017                           
  3018                           	psect	rparam
  3019  0000                     pclatu	equ	0xFFB
  3020                           pclath	equ	0xFFA
  3021                           tblptru	equ	0xFF8
  3022                           tblptrh	equ	0xFF7
  3023                           tblptrl	equ	0xFF6
  3024                           tablat	equ	0xFF5
  3025                           prodh	equ	0xFF4
  3026                           prodl	equ	0xFF3
  3027                           fsr0h	equ	0xFEA
  3028                           fsr0l	equ	0xFE9
  3029                           wreg	equ	0xFE8
  3030                           fsr1h	equ	0xFE2
  3031                           fsr1l	equ	0xFE1
  3032                           bsr	equ	0xFE0
  3033                           fsr2h	equ	0xFDA
  3034                           fsr2l	equ	0xFD9
  3035                           status	equ	0xFD8
  3036                           
  3037                           	psect	temp
  3038  00002A                     btemp:
  3039                           	opt stack 0
  3040  00002A                     	ds	1
  3041  0000                     int$flags	set	btemp
  3042                           pclatu	equ	0xFFB
  3043                           pclath	equ	0xFFA
  3044                           tblptru	equ	0xFF8
  3045                           tblptrh	equ	0xFF7
  3046                           tblptrl	equ	0xFF6
  3047                           tablat	equ	0xFF5
  3048                           prodh	equ	0xFF4
  3049                           prodl	equ	0xFF3
  3050                           fsr0h	equ	0xFEA
  3051                           fsr0l	equ	0xFE9
  3052                           wreg	equ	0xFE8
  3053                           fsr1h	equ	0xFE2
  3054                           fsr1l	equ	0xFE1
  3055                           bsr	equ	0xFE0
  3056                           fsr2h	equ	0xFDA
  3057                           fsr2l	equ	0xFD9
  3058                           status	equ	0xFD8


Data Sizes:
    Strings     0
    Constant    0
    Data        0
    BSS         0
    Persistent  0
    Stack       0

Auto Spaces:
    Space          Size  Autos    Used
    COMRAM           94     41      41
    BANK0           160     23      23
    BANK1           256      0       0
    BANK2           256      0       0
    BANK3           256      0       0
    BANK4           256      0       0
    BANK5           256      0       0
    BANK6           256      0       0
    BANK7           256      0       0
    BANK8           256      0       0
    BANK9           256      0       0
    BANK10          256      0       0
    BANK11          256      0       0
    BANK12          256      0       0

Pointer List with Targets:

    None.

Critical Paths under _main in COMRAM

    _main->_readADC

Critical Paths under _low_isr in COMRAM

    None.

Critical Paths under _high_isr in COMRAM

    None.

Critical Paths under _main in BANK0

    None.

Critical Paths under _low_isr in BANK0

    None.

Critical Paths under _high_isr in BANK0

    None.

Critical Paths under _main in BANK1

    None.

Critical Paths under _low_isr in BANK1

    None.

Critical Paths under _high_isr in BANK1

    None.

Critical Paths under _main in BANK2

    None.

Critical Paths under _low_isr in BANK2

    None.

Critical Paths under _high_isr in BANK2

    None.

Critical Paths under _main in BANK3

    None.

Critical Paths under _low_isr in BANK3

    None.

Critical Paths under _high_isr in BANK3

    None.

Critical Paths under _main in BANK4

    None.

Critical Paths under _low_isr in BANK4

    None.

Critical Paths under _high_isr in BANK4

    None.

Critical Paths under _main in BANK5

    None.

Critical Paths under _low_isr in BANK5

    None.

Critical Paths under _high_isr in BANK5

    None.

Critical Paths under _main in BANK6

    None.

Critical Paths under _low_isr in BANK6

    None.

Critical Paths under _high_isr in BANK6

    None.

Critical Paths under _main in BANK7

    None.

Critical Paths under _low_isr in BANK7

    None.

Critical Paths under _high_isr in BANK7

    None.

Critical Paths under _main in BANK8

    None.

Critical Paths under _low_isr in BANK8

    None.

Critical Paths under _high_isr in BANK8

    None.

Critical Paths under _main in BANK9

    None.

Critical Paths under _low_isr in BANK9

    None.

Critical Paths under _high_isr in BANK9

    None.

Critical Paths under _main in BANK10

    None.

Critical Paths under _low_isr in BANK10

    None.

Critical Paths under _high_isr in BANK10

    None.

Critical Paths under _main in BANK11

    None.

Critical Paths under _low_isr in BANK11

    None.

Critical Paths under _high_isr in BANK11

    None.

Critical Paths under _main in BANK12

    None.

Critical Paths under _low_isr in BANK12

    None.

Critical Paths under _high_isr in BANK12

    None.

Call Graph Tables:

 ---------------------------------------------------------------------------------
 (Depth) Function   	        Calls       Base Space   Used Autos Params    Refs
 ---------------------------------------------------------------------------------
 (0) _main                                                29    29      0    2933
                                             35 COMRAM     6     6      0
                                              0 BANK0     23    23      0
                _ConfigureOscillator
                            _readADC
                          _selectAN0
                          _selectAN1
                          _selectAN2
                          _selectAN3
                          _selectAN4
                          _selectAN5
                          _selectAN6
                          _selectAN7
                   _setActuatorCntrl
                        _setAnalogIn
 ---------------------------------------------------------------------------------
 (1) _setAnalogIn                                          0     0      0       0
 ---------------------------------------------------------------------------------
 (1) _setActuatorCntrl                                     0     0      0       0
 ---------------------------------------------------------------------------------
 (1) _selectAN7                                            0     0      0       0
 ---------------------------------------------------------------------------------
 (1) _selectAN6                                            0     0      0       0
 ---------------------------------------------------------------------------------
 (1) _selectAN5                                            0     0      0       0
 ---------------------------------------------------------------------------------
 (1) _selectAN4                                            0     0      0       0
 ---------------------------------------------------------------------------------
 (1) _selectAN3                                            0     0      0       0
 ---------------------------------------------------------------------------------
 (1) _selectAN2                                            0     0      0       0
 ---------------------------------------------------------------------------------
 (1) _selectAN1                                            0     0      0       0
 ---------------------------------------------------------------------------------
 (1) _selectAN0                                            0     0      0       0
 ---------------------------------------------------------------------------------
 (1) _readADC                                              4     2      2      24
                                             31 COMRAM     4     2      2
 ---------------------------------------------------------------------------------
 (1) _ConfigureOscillator                                  0     0      0       0
 ---------------------------------------------------------------------------------
 Estimated maximum stack depth 1
 ---------------------------------------------------------------------------------
 (Depth) Function   	        Calls       Base Space   Used Autos Params    Refs
 ---------------------------------------------------------------------------------
 (2) _low_isr                                             17    17      0       0
                                             14 COMRAM    17    17      0
 ---------------------------------------------------------------------------------
 Estimated maximum stack depth 2
 ---------------------------------------------------------------------------------
 (Depth) Function   	        Calls       Base Space   Used Autos Params    Refs
 ---------------------------------------------------------------------------------
 (3) _high_isr                                            14    14      0       0
                                              0 COMRAM    14    14      0
 ---------------------------------------------------------------------------------
 Estimated maximum stack depth 3
 ---------------------------------------------------------------------------------

 Call Graph Graphs:

 _main (ROOT)
   _ConfigureOscillator
   _readADC
   _selectAN0
   _selectAN1
   _selectAN2
   _selectAN3
   _selectAN4
   _selectAN5
   _selectAN6
   _selectAN7
   _setActuatorCntrl
   _setAnalogIn

 _low_isr (ROOT)

 _high_isr (ROOT)

 Address spaces:
Name               Size   Autos  Total    Cost      Usage
BITCOMRAM           5E      0       0       0        0.0%
EEDATA             400      0       0       0        0.0%
NULL                 0      0       0       0        0.0%
CODE                 0      0       0       0        0.0%
COMRAM              5E     29      29       1       43.6%
STACK                0      0       0       2        0.0%
DATA                 0      0       0       3        0.0%
BITBANK0            A0      0       0       4        0.0%
BANK0               A0     17      17       5       14.4%
BITBANK1           100      0       0       6        0.0%
BANK1              100      0       0       7        0.0%
BITBANK2           100      0       0       8        0.0%
BANK2              100      0       0       9        0.0%
BITBANK3           100      0       0      10        0.0%
BANK3              100      0       0      11        0.0%
BITBANK4           100      0       0      12        0.0%
BANK4              100      0       0      13        0.0%
BITBANK5           100      0       0      14        0.0%
BANK5              100      0       0      15        0.0%
BITBANK6           100      0       0      16        0.0%
BANK6              100      0       0      17        0.0%
BITBANK7           100      0       0      18        0.0%
BANK7              100      0       0      19        0.0%
ABS                  0      0       0      20        0.0%
BITBANK8           100      0       0      21        0.0%
BANK8              100      0       0      22        0.0%
BITBANK9           100      0       0      23        0.0%
BANK9              100      0       0      24        0.0%
BITBANK10          100      0       0      25        0.0%
BANK10             100      0       0      26        0.0%
BITBANK11          100      0       0      27        0.0%
BANK11             100      0       0      28        0.0%
BITBANK12          100      0       0      29        0.0%
BANK12             100      0       0      30        0.0%
BIGRAM             CFF      0       0      31        0.0%
BITSFR_3             0      0       0      40        0.0%
SFR_3                0      0       0      40        0.0%
BITSFR_2             0      0       0      40        0.0%
SFR_2                0      0       0      40        0.0%
BITSFR_1             0      0       0      40        0.0%
SFR_1                0      0       0      40        0.0%
BITSFR               0      0       0      40        0.0%
SFR                  0      0       0      40        0.0%


Microchip Technology PIC18 Macro Assembler V1.36 build -262312587 
Symbol Table                                                                                   Fri Feb 26 01:02:15 2016

                          l60 03A2                            l52 0336                            l44 02CA  
                          l80 055A                            l64 03D8                            l56 036C  
                          l48 0300                            l92 05FC                            l84 0590  
                          l68 040E                            l96 0632                            l88 05C6  
                          bsr 000FE0                   __CFG_BORV$3 000000                  __CFG_CP0$OFF 000000  
                __CFG_CP1$OFF 000000                  __CFG_CP2$OFF 000000                  __CFG_CP3$OFF 000000  
                __CFG_CP4$OFF 000000                  __CFG_CP5$OFF 000000                   __CFG_LVP$ON 000000  
                         l100 0668                           l104 069E                           l131 08BA  
                         l123 084E                           l115 07E2                           l143 0946  
                         l135 08F0                           l127 0884                           l119 0818  
                         l209 0A12                           l139 0926                  __CFG_CPB$OFF 000000  
                __CFG_CPD$OFF 000000                           u990 01D8                           wreg 000FE8  
                __CFG_WDT$OFF 000000                          l1310 0542                          l1304 0522  
                        l1410 0888                          l1402 0852                          l1330 05CA  
                        l1322 0594                          l1314 055E                          l1250 031E  
                        l1242 02E8                          l1234 02B2                          l1228 0292  
                        l1430 090E                          l1422 08D8                          l1414 08A2  
                        l1406 086C                          l1350 0650                          l1342 061A  
                        l1334 05E4                          l1326 05AE                          l1318 0578  
                        l1270 03A6                          l1262 0370                          l1254 033A  
                        l1246 0304                          l1238 02CE                          l1184 012C  
                        l1434 092A                          l1426 08F4                          l1418 08BE  
                        l1362 06A2                          l1354 066C                          l1346 0636  
                        l1338 0600                          l1370 06CE                          l1282 03F6  
                        l1274 03C0                          l1266 038A                          l1258 0354  
                        l1436 093E                          l1390 0800                          l1382 07CA  
                        l1374 07A2                          l1366 06B6                          l1358 0686  
                        l1286 0412                          l1278 03DC                          l1294 043C  
                        l1376 07AA                          l1368 06CA                          l1394 081C  
                        l1386 07E6                          l1398 0836                          u1000 01DA  
                        u1010 01F4                          u1100 027A                          u1020 01F6  
                        u1110 027C                          u1030 0210                          u1040 0212  
                        u1060 0242                          u1310 0468                          u1070 0244  
                        u1400 04EE                          u1320 046A                          u1080 025E  
                        u1410 04F0                          u1330 0484                          u1090 0260  
                        u1420 050A                          u1340 0486                          u1430 050C  
                        u1350 04A0                          u1360 04A2                          u1610 06E8  
                        u1700 076E                          u1620 06EA                          u1380 04D2  
                        u1710 0770                          u1630 0704                          u1390 04D4  
                        u1720 078A                          u1640 0706                          u1730 078C  
                        u1650 0720                          u1660 0722                          u1680 0752  
                        u1690 0754                          _main 00AA                          fsr0h 000FEA  
                        fsr1h 000FE2                          fsr0l 000FE9                          fsr2h 000FDA  
                        fsr1l 000FE1                          fsr2l 000FD9                   main@retract 0073  
                        btemp 002A                          pclat 000FFA                          prodh 000FF4  
                        prodl 000FF3                          start 00A6                 __CFG_IESO$OFF 000000  
               __CFG_MCLRE$ON 000000                  ___param_bank 000010                         ?_main 0001  
         _ConfigureOscillator 0A2A                 __CFG_PWRT$OFF 000000                 __CFG_WRT0$OFF 000000  
               __CFG_WRT1$OFF 000000                 __CFG_WRT2$OFF 000000                 __CFG_WRT3$OFF 000000  
               __CFG_WRT4$OFF 000000                 __CFG_WRT5$OFF 000000      __end_of_setActuatorCntrl 0A10  
              __CFG_EBTR0$OFF 000000                __CFG_FCMEN$OFF 000000                __CFG_EBTR1$OFF 000000  
              __CFG_EBTR2$OFF 000000                __CFG_EBTR3$OFF 000000                __CFG_EBTR4$OFF 000000  
              __CFG_EBTR5$OFF 000000                 __CFG_WRTB$OFF 000000                 __CFG_WRTC$OFF 000000  
               __CFG_WRTD$OFF 000000               __end_of_readADC 0A2A                __CFG_EBTRB$OFF 000000  
             __end_of_low_isr 00A6                         tablat 000FF5                         status 000FD8  
              __CFG_PBADEN$ON 000000          ?_ConfigureOscillator 0001               __initialization 0A36  
                ?_setAnalogIn 0001                  __end_of_main 094E                 main@actuator0 0063  
               main@actuator1 0065                 main@actuator2 0067                 main@actuator3 0069  
               main@actuator4 006B                 main@actuator5 006D                 main@actuator6 006F  
               main@actuator7 0071                        ??_main 0024                 __activetblptr 000000  
                      _ADRESH 000FC4                        _ADRESL 000FC3               __CFG_BBSIZ$1024 000000  
       ??_ConfigureOscillator 0020                __CFG_XINST$OFF 000000              __end_of_high_isr 09BA  
              __CFG_STVREN$ON 000000                     ??_readADC 0022               __CFG_BOREN$BOHW 000000  
                   ??_low_isr 000F                        tblptrh 000FF7                        tblptrl 000FF6  
                      tblptru 000FF8                    __accesstop 0060       __end_of__initialization 0A36  
               ___rparam_used 000001                __pcstackCOMRAM 0001            __size_of_selectAN0 000A  
          __size_of_selectAN1 000A            __size_of_selectAN2 000A            __size_of_selectAN3 000A  
          __size_of_selectAN4 000A            __size_of_selectAN5 000A            __size_of_selectAN6 000A  
          __size_of_selectAN7 000A          __size_of_setAnalogIn 0034             ?_setActuatorCntrl 0001  
                   ?_high_isr 0001            ??_setActuatorCntrl 0020                       __Hparam 0000  
                     __Lparam 0000                       __pcinit 0A36                       __ramtop 0D00  
                     __ptext0 00AA                       __ptext1 09BA                       __ptext2 09EE  
                     __ptext3 0A40                       __ptext4 0A4A                       __ptext5 0A54  
                     __ptext6 0A5E                       __ptext7 0A68                       __ptext8 0A72  
                     __ptext9 0A7C                       _readADC 0A10                       _low_isr 0018  
                  ??_high_isr 0001                __pintcode_body 094E             __end_of_selectAN0 0A90  
           __end_of_selectAN1 0A86             __end_of_selectAN2 0A7C             __end_of_selectAN3 0A72  
        end_of_initialization 0A36             __end_of_selectAN4 0A68             __end_of_selectAN5 0A5E  
           __end_of_selectAN6 0A54             __end_of_selectAN7 0A4A                       int_func 094E  
                   _TRISAbits 000F92                     _TRISBbits 000F93                     _TRISCbits 000F94  
                   _TRISDbits 000F95                     _TRISEbits 000F96   __end_of_ConfigureOscillator 0A36  
                  main@extend 0075             readADC@digitalVal 0022           start_initialization 0A36  
            __CFG_OSC$IRCIO67 000000              __CFG_LPT1OSC$OFF 000000                 __pcstackBANK0 0060  
           __size_of_high_isr 09B2     __size_of_setActuatorCntrl 0022                 ??_setAnalogIn 0020  
                   __pintcode 0008                   __pintcodelo 0018                      ?_readADC 0020  
                    ?_low_isr 0001                      _LATCbits 000F8B                      _LATDbits 000F8C  
                   _selectAN0 0A86                     _selectAN1 0A7C                     _selectAN2 0A72  
                   _selectAN3 0A68                     _selectAN4 0A5E                     _selectAN5 0A54  
                   _selectAN6 0A4A                     _selectAN7 0A40              __CFG_WDTPS$32768 000000  
         __end_of_setAnalogIn 09EE                    _ADCON0bits 000FC2                    _ADCON1bits 000FC1  
                  _ADCON2bits 000FC0                    ?_selectAN0 0001                    ?_selectAN1 0001  
                  ?_selectAN2 0001                    ?_selectAN3 0001                    ?_selectAN4 0001  
                  ?_selectAN5 0001                    ?_selectAN6 0001                    ?_selectAN7 0001  
                    __Hrparam 0000                      __Lrparam 0000              __size_of_readADC 001A  
            __size_of_low_isr 008E                      __ptext10 0A86                      __ptext11 0A10  
                    __ptext12 0A2A                      _high_isr 0008                 __size_of_main 08A4  
__size_of_ConfigureOscillator 000C              _setActuatorCntrl 09EE                   _setAnalogIn 09BA  
                    main@BACK 0061                      main@FORW 0060                      int$flags 002A  
                    main@done 0062                   _OSCTUNEbits 000F9B                      intlevel1 0000  
                    intlevel2 0000                   ??_selectAN0 0020                   ??_selectAN1 0020  
                 ??_selectAN2 0020                   ??_selectAN3 0020                   ??_selectAN4 0020  
                 ??_selectAN5 0020                   ??_selectAN6 0020                   ??_selectAN7 0020  
                  _OSCCONbits 000FD3  
