

Microchip Technology PIC18 LITE Macro Assembler V1.36 build -262312587 
                                                                                               Wed Feb 24 00:12:57 2016

Microchip Technology Omniscient Code Generator v1.36 (Free mode) build 201601150325
     1                           	processor	18F4685
     2                           	fnconf	rparam,??,?,0
     3                           	opt	pw 120
     4                           	opt	lm
     5                           	psect	cinit,global,reloc=2,class=CODE,delta=1
     6                           	psect	cstackCOMRAM,global,class=COMRAM,space=1,delta=1
     7                           	psect	text0,global,reloc=2,class=CODE,delta=1
     8                           	psect	text1,global,reloc=2,class=CODE,delta=1
     9                           	psect	text2,global,reloc=2,class=CODE,delta=1
    10                           	psect	text3,global,reloc=2,class=CODE,delta=1
    11                           	psect	text4,global,reloc=2,class=CODE,delta=1
    12                           	psect	intcodelo,global,reloc=2,class=CODE,delta=1
    13                           	psect	intcode,global,reloc=2,class=CODE,delta=1
    14                           	psect	intcode_body,global,reloc=2,class=CODE,delta=1
    15                           	psect	intsave_regs,global,class=BIGRAM,space=1,delta=1
    16                           	psect	rparam,global,class=COMRAM,space=1,delta=1
    17                           	psect	temp,global,ovrld,common,class=COMRAM,space=1,delta=1
    18  0000                     _ADCON0bits	set	4034
    19  0000                     _ADCON1bits	set	4033
    20  0000                     _ADCON2bits	set	4032
    21  0000                     _ADRESH	set	4036
    22  0000                     _ADRESL	set	4035
    23  0000                     _LATDbits	set	3980
    24  0000                     _OSCCONbits	set	4051
    25  0000                     _OSCTUNEbits	set	3995
    26  0000                     _TRISAbits	set	3986
    27  0000                     _TRISBbits	set	3987
    28  0000                     _TRISDbits	set	3989
    29  0000                     _TRISEbits	set	3990
    30                           
    31                           ; #config settings
    32  0000                     
    33                           	psect	cinit
    34  0001CE                     __pcinit:
    35                           	opt stack 0
    36  0001CE                     start_initialization:
    37                           	opt stack 0
    38  0001CE                     __initialization:
    39                           	opt stack 0
    40  0001CE                     end_of_initialization:
    41                           	opt stack 0
    42  0001CE                     __end_of__initialization:
    43                           	opt stack 0
    44  0001CE  9024               	bcf	int$flags,0,c	;clear compiler interrupt flag (level 1)
    45  0001D0  9224               	bcf	int$flags,1,c	;clear compiler interrupt flag (level 2)
    46  0001D2  0100               	movlb	0
    47  0001D4  EF55  F000         	goto	_main	;jump to C main() function
    48                           
    49                           	psect	cstackCOMRAM
    50  000001                     __pcstackCOMRAM:
    51                           	opt stack 0
    52  000001                     ??_high_isr:
    53  000001                     
    54                           ; 1 bytes @ 0x0
    55  000001                     	ds	14
    56  00000F                     ??_low_isr:
    57                           
    58                           ; 1 bytes @ 0xE
    59  00000F                     	ds	17
    60  000020                     main@actuatorOnePos:
    61                           	opt stack 0
    62                           
    63                           ; 2 bytes @ 0x1F
    64  000020                     	ds	2
    65  000022                     main@desiredOnePos:
    66                           	opt stack 0
    67                           
    68                           ; 2 bytes @ 0x21
    69  000022                     	ds	2
    70                           
    71 ;;
    72 ;;Main: autosize = 0, tempsize = 0, incstack = 0, save=0
    73 ;;
    74 ;; *************** function _main *****************
    75 ;; Defined at:
    76 ;;		line 33 in file "main.c"
    77 ;; Parameters:    Size  Location     Type
    78 ;;		None
    79 ;; Auto vars:     Size  Location     Type
    80 ;;  desiredOnePo    2   33[COMRAM] unsigned int 
    81 ;;  actuatorOneP    2   31[COMRAM] unsigned int 
    82 ;; Return value:  Size  Location     Type
    83 ;;                  1    wreg      void 
    84 ;; Registers used:
    85 ;;		wreg, status,2, status,0, cstack
    86 ;; Tracked objects:
    87 ;;		On entry : 0/0
    88 ;;		On exit  : 0/0
    89 ;;		Unchanged: 0/0
    90 ;; Data sizes:     COMRAM   BANK0   BANK1   BANK2   BANK3   BANK4   BANK5   BANK6   BANK7   BANK8   BANK9  BANK10  BANK1
      +1  BANK12
    91 ;;      Params:         0       0       0       0       0       0       0       0       0       0       0       0       
      +0       0
    92 ;;      Locals:         4       0       0       0       0       0       0       0       0       0       0       0       
      +0       0
    93 ;;      Temps:          0       0       0       0       0       0       0       0       0       0       0       0       
      +0       0
    94 ;;      Totals:         4       0       0       0       0       0       0       0       0       0       0       0       
      +0       0
    95 ;;Total ram usage:        4 bytes
    96 ;; Hardware stack levels required when called:    3
    97 ;; This function calls:
    98 ;;		_ConfigureOscillator
    99 ;;		_InitApp
   100 ;;		_setActuatorCntrl
   101 ;;		_setAnalogIn
   102 ;; This function is called by:
   103 ;;		Startup code after reset
   104 ;; This function uses a non-reentrant model
   105 ;;
   106                           
   107                           	psect	text0
   108  0000AA                     __ptext0:
   109                           	opt stack 0
   110  0000AA                     _main:
   111                           	opt stack 28
   112                           
   113                           ;main.c: 36: ConfigureOscillator();
   114                           
   115                           ;incstack = 0
   116  0000AA  ECE1  F000         	call	_ConfigureOscillator	;wreg free
   117                           
   118                           ;main.c: 39: InitApp();
   119  0000AE  ECEF  F000         	call	_InitApp	;wreg free
   120                           
   121                           ;main.c: 42: setAnalogIn();
   122  0000B2  ECC3  F000         	call	_setAnalogIn	;wreg free
   123                           
   124                           ;main.c: 43: setActuatorCntrl();
   125  0000B6  ECEC  F000         	call	_setActuatorCntrl	;wreg free
   126                           
   127                           ;main.c: 44: unsigned int actuatorOnePos = 0;
   128  0000BA  0E00               	movlw	0
   129  0000BC  6E21               	movwf	main@actuatorOnePos+1,c
   130  0000BE  0E00               	movlw	0
   131  0000C0  6E20               	movwf	main@actuatorOnePos,c
   132  0000C2  D026               	goto	l693
   133  0000C4                     l677:
   134                           
   135                           ;main.c: 48: {
   136                           ;main.c: 50: ADCON0bits.GO_NOT_DONE = 1;
   137  0000C4  82C2               	bsf	4034,1,c	;volatile
   138  0000C6                     l26:
   139  0000C6  B2C2               	btfsc	4034,1,c	;volatile
   140  0000C8  D7FE               	goto	l26
   141                           
   142                           ;main.c: 56: actuatorOnePos = ADRESL;
   143  0000CA  CFC3 F020          	movff	4035,main@actuatorOnePos	;volatile
   144  0000CE  6A21               	clrf	main@actuatorOnePos+1,c
   145                           
   146                           ;main.c: 57: actuatorOnePos += ADRESH << 8;
   147  0000D0  50C4               	movf	4036,w,c	;volatile
   148  0000D2  2621               	addwf	main@actuatorOnePos+1,f,c
   149                           
   150                           ;main.c: 59: if(actuatorOnePos < desiredOnePos)
   151  0000D4  5022               	movf	main@desiredOnePos,w,c
   152  0000D6  5C20               	subwf	main@actuatorOnePos,w,c
   153  0000D8  5023               	movf	main@desiredOnePos+1,w,c
   154  0000DA  5821               	subwfb	main@actuatorOnePos+1,w,c
   155  0000DC  B0D8               	btfsc	status,0,c
   156  0000DE  D003               	goto	l685
   157                           
   158                           ;main.c: 60: {
   159                           ;main.c: 62: LATDbits.LATD0 = 0;
   160  0000E0  908C               	bcf	3980,0,c	;volatile
   161                           
   162                           ;main.c: 63: LATDbits.LATD1 = 1;
   163  0000E2  828C               	bsf	3980,1,c	;volatile
   164                           
   165                           ;main.c: 64: } else if(actuatorOnePos > desiredOnePos) {
   166  0000E4  D7EF               	goto	l677
   167  0000E6                     l685:
   168  0000E6  5020               	movf	main@actuatorOnePos,w,c
   169  0000E8  5C22               	subwf	main@desiredOnePos,w,c
   170  0000EA  5021               	movf	main@actuatorOnePos+1,w,c
   171  0000EC  5823               	subwfb	main@desiredOnePos+1,w,c
   172  0000EE  B0D8               	btfsc	status,0,c
   173  0000F0  D003               	goto	l31
   174                           
   175                           ;main.c: 66: LATDbits.LATD0 = 1;
   176  0000F2  808C               	bsf	3980,0,c	;volatile
   177                           
   178                           ;main.c: 67: LATDbits.LATD1 = 0;
   179  0000F4  928C               	bcf	3980,1,c	;volatile
   180                           
   181                           ;main.c: 68: } else {
   182  0000F6  D7E6               	goto	l677
   183  0000F8                     l31:
   184                           
   185                           ;main.c: 70: LATDbits.LATD0 = 0;
   186  0000F8  908C               	bcf	3980,0,c	;volatile
   187                           
   188                           ;main.c: 71: LATDbits.LATD1 = 0;
   189  0000FA  928C               	bcf	3980,1,c	;volatile
   190                           
   191                           ;main.c: 74: if(desiredOnePos == 500)
   192  0000FC  0EF4               	movlw	244
   193  0000FE  1822               	xorwf	main@desiredOnePos,w,c
   194  000100  E107               	bnz	l693
   195  000102  0423               	decf	main@desiredOnePos+1,w,c
   196  000104  A4D8               	btfss	status,2,c
   197  000106  D004               	goto	l693
   198                           
   199                           ;main.c: 75: {
   200                           ;main.c: 76: desiredOnePos = 400;
   201  000108  0E01               	movlw	1
   202  00010A  6E23               	movwf	main@desiredOnePos+1,c
   203  00010C  0E90               	movlw	144
   204  00010E  D003               	goto	L2
   205  000110                     l693:
   206                           
   207                           ;main.c: 78: desiredOnePos = 500;
   208  000110  0E01               	movlw	1
   209  000112  6E23               	movwf	main@desiredOnePos+1,c
   210  000114  0EF4               	movlw	244
   211  000116                     L2:
   212  000116  6E22               	movwf	main@desiredOnePos,c
   213  000118  D7D5               	goto	l677
   214  00011A                     __end_of_main:
   215                           	opt stack 0
   216                           status	equ	0xFD8
   217                           
   218 ;; *************** function _setAnalogIn *****************
   219 ;; Defined at:
   220 ;;		line 40 in file "system.c"
   221 ;; Parameters:    Size  Location     Type
   222 ;;		None
   223 ;; Auto vars:     Size  Location     Type
   224 ;;		None
   225 ;; Return value:  Size  Location     Type
   226 ;;                  1    wreg      void 
   227 ;; Registers used:
   228 ;;		None
   229 ;; Tracked objects:
   230 ;;		On entry : 0/0
   231 ;;		On exit  : 0/0
   232 ;;		Unchanged: 0/0
   233 ;; Data sizes:     COMRAM   BANK0   BANK1   BANK2   BANK3   BANK4   BANK5   BANK6   BANK7   BANK8   BANK9  BANK10  BANK1
      +1  BANK12
   234 ;;      Params:         0       0       0       0       0       0       0       0       0       0       0       0       
      +0       0
   235 ;;      Locals:         0       0       0       0       0       0       0       0       0       0       0       0       
      +0       0
   236 ;;      Temps:          0       0       0       0       0       0       0       0       0       0       0       0       
      +0       0
   237 ;;      Totals:         0       0       0       0       0       0       0       0       0       0       0       0       
      +0       0
   238 ;;Total ram usage:        0 bytes
   239 ;; Hardware stack levels used:    1
   240 ;; Hardware stack levels required when called:    2
   241 ;; This function calls:
   242 ;;		Nothing
   243 ;; This function is called by:
   244 ;;		_main
   245 ;; This function uses a non-reentrant model
   246 ;;
   247                           
   248                           	psect	text1
   249  000186                     __ptext1:
   250                           	opt stack 0
   251  000186                     _setAnalogIn:
   252                           	opt stack 28
   253                           
   254                           ;system.c: 43: ADCON1bits.PCFG = 0;
   255                           
   256                           ;incstack = 0
   257  000186  90C1               	bcf	4033,0,c	;volatile
   258  000188  92C1               	bcf	4033,1,c	;volatile
   259  00018A  94C1               	bcf	4033,2,c	;volatile
   260  00018C  96C1               	bcf	4033,3,c	;volatile
   261                           
   262                           ;system.c: 44: ADCON2bits.ADFM = 1;
   263  00018E  8EC0               	bsf	4032,7,c	;volatile
   264                           
   265                           ;system.c: 48: ADCON1bits.VCFG0 = 0;
   266  000190  98C1               	bcf	4033,4,c	;volatile
   267                           
   268                           ;system.c: 49: ADCON1bits.VCFG1 = 0;
   269  000192  9AC1               	bcf	4033,5,c	;volatile
   270                           
   271                           ;system.c: 52: ADCON2bits.ACQT2 = 0;
   272  000194  9AC0               	bcf	4032,5,c	;volatile
   273                           
   274                           ;system.c: 53: ADCON2bits.ACQT1 = 1;
   275  000196  88C0               	bsf	4032,4,c	;volatile
   276                           
   277                           ;system.c: 54: ADCON2bits.ACQT0 = 0;
   278  000198  96C0               	bcf	4032,3,c	;volatile
   279                           
   280                           ;system.c: 57: ADCON2bits.ADCS2 = 0;
   281  00019A  94C0               	bcf	4032,2,c	;volatile
   282                           
   283                           ;system.c: 58: ADCON2bits.ADCS1 = 1;
   284  00019C  82C0               	bsf	4032,1,c	;volatile
   285                           
   286                           ;system.c: 59: ADCON2bits.ADCS0 = 0;
   287  00019E  90C0               	bcf	4032,0,c	;volatile
   288                           
   289                           ;system.c: 62: ADCON0bits.CHS = 0x0;
   290  0001A0  94C2               	bcf	4034,2,c	;volatile
   291  0001A2  96C2               	bcf	4034,3,c	;volatile
   292  0001A4  98C2               	bcf	4034,4,c	;volatile
   293  0001A6  9AC2               	bcf	4034,5,c	;volatile
   294                           
   295                           ;system.c: 65: TRISAbits.TRISA0 = 1;
   296  0001A8  8092               	bsf	3986,0,c	;volatile
   297                           
   298                           ;system.c: 66: TRISAbits.TRISA1 = 1;
   299  0001AA  8292               	bsf	3986,1,c	;volatile
   300                           
   301                           ;system.c: 67: TRISAbits.TRISA2 = 1;
   302  0001AC  8492               	bsf	3986,2,c	;volatile
   303                           
   304                           ;system.c: 68: TRISAbits.TRISA3 = 1;
   305  0001AE  8692               	bsf	3986,3,c	;volatile
   306                           
   307                           ;system.c: 69: TRISAbits.TRISA5 = 1;
   308  0001B0  8A92               	bsf	3986,5,c	;volatile
   309                           
   310                           ;system.c: 70: TRISEbits.TRISE0 = 1;
   311  0001B2  8096               	bsf	3990,0,c	;volatile
   312                           
   313                           ;system.c: 71: TRISEbits.TRISE1 = 1;
   314  0001B4  8296               	bsf	3990,1,c	;volatile
   315                           
   316                           ;system.c: 72: TRISEbits.TRISE2 = 1;
   317  0001B6  8496               	bsf	3990,2,c	;volatile
   318                           
   319                           ;system.c: 73: TRISBbits.TRISB1 = 1;
   320  0001B8  8293               	bsf	3987,1,c	;volatile
   321                           
   322                           ;system.c: 74: TRISBbits.TRISB4 = 1;
   323  0001BA  8893               	bsf	3987,4,c	;volatile
   324                           
   325                           ;system.c: 75: TRISBbits.TRISB0 = 1;
   326  0001BC  8093               	bsf	3987,0,c	;volatile
   327                           
   328                           ;system.c: 78: ADCON0bits.ADON = 1;
   329  0001BE  80C2               	bsf	4034,0,c	;volatile
   330  0001C0  0012               	return		;funcret
   331  0001C2                     __end_of_setAnalogIn:
   332                           	opt stack 0
   333                           status	equ	0xFD8
   334                           
   335 ;; *************** function _setActuatorCntrl *****************
   336 ;; Defined at:
   337 ;;		line 81 in file "system.c"
   338 ;; Parameters:    Size  Location     Type
   339 ;;		None
   340 ;; Auto vars:     Size  Location     Type
   341 ;;		None
   342 ;; Return value:  Size  Location     Type
   343 ;;                  1    wreg      void 
   344 ;; Registers used:
   345 ;;		None
   346 ;; Tracked objects:
   347 ;;		On entry : 0/0
   348 ;;		On exit  : 0/0
   349 ;;		Unchanged: 0/0
   350 ;; Data sizes:     COMRAM   BANK0   BANK1   BANK2   BANK3   BANK4   BANK5   BANK6   BANK7   BANK8   BANK9  BANK10  BANK1
      +1  BANK12
   351 ;;      Params:         0       0       0       0       0       0       0       0       0       0       0       0       
      +0       0
   352 ;;      Locals:         0       0       0       0       0       0       0       0       0       0       0       0       
      +0       0
   353 ;;      Temps:          0       0       0       0       0       0       0       0       0       0       0       0       
      +0       0
   354 ;;      Totals:         0       0       0       0       0       0       0       0       0       0       0       0       
      +0       0
   355 ;;Total ram usage:        0 bytes
   356 ;; Hardware stack levels used:    1
   357 ;; Hardware stack levels required when called:    2
   358 ;; This function calls:
   359 ;;		Nothing
   360 ;; This function is called by:
   361 ;;		_main
   362 ;; This function uses a non-reentrant model
   363 ;;
   364                           
   365                           	psect	text2
   366  0001D8                     __ptext2:
   367                           	opt stack 0
   368  0001D8                     _setActuatorCntrl:
   369                           	opt stack 28
   370                           
   371                           ;system.c: 84: TRISDbits.TRISD0 = 0;
   372                           
   373                           ;incstack = 0
   374  0001D8  9095               	bcf	3989,0,c	;volatile
   375                           
   376                           ;system.c: 85: TRISDbits.TRISD1 = 0;
   377  0001DA  9295               	bcf	3989,1,c	;volatile
   378  0001DC  0012               	return		;funcret
   379  0001DE                     __end_of_setActuatorCntrl:
   380                           	opt stack 0
   381                           status	equ	0xFD8
   382                           
   383 ;; *************** function _InitApp *****************
   384 ;; Defined at:
   385 ;;		line 28 in file "user.c"
   386 ;; Parameters:    Size  Location     Type
   387 ;;		None
   388 ;; Auto vars:     Size  Location     Type
   389 ;;		None
   390 ;; Return value:  Size  Location     Type
   391 ;;                  1    wreg      void 
   392 ;; Registers used:
   393 ;;		None
   394 ;; Tracked objects:
   395 ;;		On entry : 0/0
   396 ;;		On exit  : 0/0
   397 ;;		Unchanged: 0/0
   398 ;; Data sizes:     COMRAM   BANK0   BANK1   BANK2   BANK3   BANK4   BANK5   BANK6   BANK7   BANK8   BANK9  BANK10  BANK1
      +1  BANK12
   399 ;;      Params:         0       0       0       0       0       0       0       0       0       0       0       0       
      +0       0
   400 ;;      Locals:         0       0       0       0       0       0       0       0       0       0       0       0       
      +0       0
   401 ;;      Temps:          0       0       0       0       0       0       0       0       0       0       0       0       
      +0       0
   402 ;;      Totals:         0       0       0       0       0       0       0       0       0       0       0       0       
      +0       0
   403 ;;Total ram usage:        0 bytes
   404 ;; Hardware stack levels used:    1
   405 ;; Hardware stack levels required when called:    2
   406 ;; This function calls:
   407 ;;		Nothing
   408 ;; This function is called by:
   409 ;;		_main
   410 ;; This function uses a non-reentrant model
   411 ;;
   412                           
   413                           	psect	text3
   414  0001DE                     __ptext3:
   415                           	opt stack 0
   416  0001DE                     _InitApp:
   417                           	opt stack 28
   418                           
   419                           ;incstack = 0
   420  0001DE  0012               	return		;funcret
   421  0001E0                     __end_of_InitApp:
   422                           	opt stack 0
   423                           status	equ	0xFD8
   424                           
   425 ;; *************** function _ConfigureOscillator *****************
   426 ;; Defined at:
   427 ;;		line 24 in file "system.c"
   428 ;; Parameters:    Size  Location     Type
   429 ;;		None
   430 ;; Auto vars:     Size  Location     Type
   431 ;;		None
   432 ;; Return value:  Size  Location     Type
   433 ;;                  1    wreg      void 
   434 ;; Registers used:
   435 ;;		None
   436 ;; Tracked objects:
   437 ;;		On entry : 0/0
   438 ;;		On exit  : 0/0
   439 ;;		Unchanged: 0/0
   440 ;; Data sizes:     COMRAM   BANK0   BANK1   BANK2   BANK3   BANK4   BANK5   BANK6   BANK7   BANK8   BANK9  BANK10  BANK1
      +1  BANK12
   441 ;;      Params:         0       0       0       0       0       0       0       0       0       0       0       0       
      +0       0
   442 ;;      Locals:         0       0       0       0       0       0       0       0       0       0       0       0       
      +0       0
   443 ;;      Temps:          0       0       0       0       0       0       0       0       0       0       0       0       
      +0       0
   444 ;;      Totals:         0       0       0       0       0       0       0       0       0       0       0       0       
      +0       0
   445 ;;Total ram usage:        0 bytes
   446 ;; Hardware stack levels used:    1
   447 ;; Hardware stack levels required when called:    2
   448 ;; This function calls:
   449 ;;		Nothing
   450 ;; This function is called by:
   451 ;;		_main
   452 ;; This function uses a non-reentrant model
   453 ;;
   454                           
   455                           	psect	text4
   456  0001C2                     __ptext4:
   457                           	opt stack 0
   458  0001C2                     _ConfigureOscillator:
   459                           	opt stack 28
   460                           
   461                           ;system.c: 31: OSCTUNEbits.PLLEN = 1;
   462                           
   463                           ;incstack = 0
   464  0001C2  8C9B               	bsf	3995,6,c	;volatile
   465                           
   466                           ;system.c: 32: OSCCONbits.IRCF0 = 1;
   467  0001C4  88D3               	bsf	4051,4,c	;volatile
   468                           
   469                           ;system.c: 33: OSCCONbits.IRCF1 = 1;
   470  0001C6  8AD3               	bsf	4051,5,c	;volatile
   471                           
   472                           ;system.c: 34: OSCCONbits.IRCF2 = 1;
   473  0001C8  8CD3               	bsf	4051,6,c	;volatile
   474                           
   475                           ;system.c: 37: TRISAbits.TRISA6 = 0;
   476  0001CA  9C92               	bcf	3986,6,c	;volatile
   477  0001CC  0012               	return		;funcret
   478  0001CE                     __end_of_ConfigureOscillator:
   479                           	opt stack 0
   480                           status	equ	0xFD8
   481                           
   482 ;; *************** function _low_isr *****************
   483 ;; Defined at:
   484 ;;		line 67 in file "interrupts.c"
   485 ;; Parameters:    Size  Location     Type
   486 ;;		None
   487 ;; Auto vars:     Size  Location     Type
   488 ;;		None
   489 ;; Return value:  Size  Location     Type
   490 ;;                  1    wreg      void 
   491 ;; Registers used:
   492 ;;		None
   493 ;; Tracked objects:
   494 ;;		On entry : 0/0
   495 ;;		On exit  : 0/0
   496 ;;		Unchanged: 0/0
   497 ;; Data sizes:     COMRAM   BANK0   BANK1   BANK2   BANK3   BANK4   BANK5   BANK6   BANK7   BANK8   BANK9  BANK10  BANK1
      +1  BANK12
   498 ;;      Params:         0       0       0       0       0       0       0       0       0       0       0       0       
      +0       0
   499 ;;      Locals:         0       0       0       0       0       0       0       0       0       0       0       0       
      +0       0
   500 ;;      Temps:         17       0       0       0       0       0       0       0       0       0       0       0       
      +0       0
   501 ;;      Totals:        17       0       0       0       0       0       0       0       0       0       0       0       
      +0       0
   502 ;;Total ram usage:       17 bytes
   503 ;; Hardware stack levels used:    1
   504 ;; Hardware stack levels required when called:    1
   505 ;; This function calls:
   506 ;;		Nothing
   507 ;; This function is called by:
   508 ;;		Interrupt level 1
   509 ;; This function uses a non-reentrant model
   510 ;;
   511                           
   512                           	psect	intcodelo
   513  000018                     __pintcodelo:
   514                           	opt stack 0
   515  000018                     _low_isr:
   516                           	opt stack 28
   517                           
   518                           ;incstack = 0
   519  000018  8024               	bsf	btemp,0,c	;set compiler interrupt flag (level 1)
   520  00001A  CFD8 F00F          	movff	status,??_low_isr
   521  00001E  CFE8 F010          	movff	wreg,??_low_isr+1
   522  000022  CFE0 F011          	movff	bsr,??_low_isr+2
   523  000026  CFFA F012          	movff	pclath,??_low_isr+3
   524  00002A  CFFB F013          	movff	pclatu,??_low_isr+4
   525  00002E  CFE9 F014          	movff	fsr0l,??_low_isr+5
   526  000032  CFEA F015          	movff	fsr0h,??_low_isr+6
   527  000036  CFE1 F016          	movff	fsr1l,??_low_isr+7
   528  00003A  CFE2 F017          	movff	fsr1h,??_low_isr+8
   529  00003E  CFD9 F018          	movff	fsr2l,??_low_isr+9
   530  000042  CFDA F019          	movff	fsr2h,??_low_isr+10
   531  000046  CFF3 F01A          	movff	prodl,??_low_isr+11
   532  00004A  CFF4 F01B          	movff	prodh,??_low_isr+12
   533  00004E  CFF6 F01C          	movff	tblptrl,??_low_isr+13
   534  000052  CFF7 F01D          	movff	tblptrh,??_low_isr+14
   535  000056  CFF8 F01E          	movff	tblptru,??_low_isr+15
   536  00005A  CFF5 F01F          	movff	tablat,??_low_isr+16
   537  00005E  C01F  FFF5         	movff	??_low_isr+16,tablat
   538  000062  C01E  FFF8         	movff	??_low_isr+15,tblptru
   539  000066  C01D  FFF7         	movff	??_low_isr+14,tblptrh
   540  00006A  C01C  FFF6         	movff	??_low_isr+13,tblptrl
   541  00006E  C01B  FFF4         	movff	??_low_isr+12,prodh
   542  000072  C01A  FFF3         	movff	??_low_isr+11,prodl
   543  000076  C019  FFDA         	movff	??_low_isr+10,fsr2h
   544  00007A  C018  FFD9         	movff	??_low_isr+9,fsr2l
   545  00007E  C017  FFE2         	movff	??_low_isr+8,fsr1h
   546  000082  C016  FFE1         	movff	??_low_isr+7,fsr1l
   547  000086  C015  FFEA         	movff	??_low_isr+6,fsr0h
   548  00008A  C014  FFE9         	movff	??_low_isr+5,fsr0l
   549  00008E  C013  FFFB         	movff	??_low_isr+4,pclatu
   550  000092  C012  FFFA         	movff	??_low_isr+3,pclath
   551  000096  C011  FFE0         	movff	??_low_isr+2,bsr
   552  00009A  C010  FFE8         	movff	??_low_isr+1,wreg
   553  00009E  C00F  FFD8         	movff	??_low_isr,status
   554  0000A2  9024               	bcf	btemp,0,c	;clear compiler interrupt flag (level 1)
   555  0000A4  0010               	retfie	
   556  0000A6                     __end_of_low_isr:
   557                           	opt stack 0
   558                           pclatu	equ	0xFFB
   559                           pclath	equ	0xFFA
   560                           tblptru	equ	0xFF8
   561                           tblptrh	equ	0xFF7
   562                           tblptrl	equ	0xFF6
   563                           tablat	equ	0xFF5
   564                           prodh	equ	0xFF4
   565                           prodl	equ	0xFF3
   566                           fsr0h	equ	0xFEA
   567                           fsr0l	equ	0xFE9
   568                           wreg	equ	0xFE8
   569                           fsr1h	equ	0xFE2
   570                           fsr1l	equ	0xFE1
   571                           bsr	equ	0xFE0
   572                           fsr2h	equ	0xFDA
   573                           fsr2l	equ	0xFD9
   574                           status	equ	0xFD8
   575                           
   576 ;; *************** function _high_isr *****************
   577 ;; Defined at:
   578 ;;		line 27 in file "interrupts.c"
   579 ;; Parameters:    Size  Location     Type
   580 ;;		None
   581 ;; Auto vars:     Size  Location     Type
   582 ;;		None
   583 ;; Return value:  Size  Location     Type
   584 ;;                  1    wreg      void 
   585 ;; Registers used:
   586 ;;		None
   587 ;; Tracked objects:
   588 ;;		On entry : 0/0
   589 ;;		On exit  : 0/0
   590 ;;		Unchanged: 0/0
   591 ;; Data sizes:     COMRAM   BANK0   BANK1   BANK2   BANK3   BANK4   BANK5   BANK6   BANK7   BANK8   BANK9  BANK10  BANK1
      +1  BANK12
   592 ;;      Params:         0       0       0       0       0       0       0       0       0       0       0       0       
      +0       0
   593 ;;      Locals:         0       0       0       0       0       0       0       0       0       0       0       0       
      +0       0
   594 ;;      Temps:         14       0       0       0       0       0       0       0       0       0       0       0       
      +0       0
   595 ;;      Totals:        14       0       0       0       0       0       0       0       0       0       0       0       
      +0       0
   596 ;;Total ram usage:       14 bytes
   597 ;; Hardware stack levels used:    1
   598 ;; This function calls:
   599 ;;		Nothing
   600 ;; This function is called by:
   601 ;;		Interrupt level 2
   602 ;; This function uses a non-reentrant model
   603 ;;
   604                           
   605                           	psect	intcode
   606  000008                     __pintcode:
   607                           	opt stack 0
   608  000008                     _high_isr:
   609                           	opt stack 28
   610                           
   611                           ;incstack = 0
   612  000008  8224               	bsf	btemp,1,c	;set compiler interrupt flag (level 2)
   613  00000A  CFFA F001          	movff	pclath,??_high_isr
   614  00000E  CFFB F002          	movff	pclatu,??_high_isr+1
   615  000012  EF8D  F000         	goto	int_func
   616                           pclatu	equ	0xFFB
   617                           pclath	equ	0xFFA
   618                           tblptru	equ	0xFF8
   619                           tblptrh	equ	0xFF7
   620                           tblptrl	equ	0xFF6
   621                           tablat	equ	0xFF5
   622                           prodh	equ	0xFF4
   623                           prodl	equ	0xFF3
   624                           fsr0h	equ	0xFEA
   625                           fsr0l	equ	0xFE9
   626                           wreg	equ	0xFE8
   627                           fsr1h	equ	0xFE2
   628                           fsr1l	equ	0xFE1
   629                           bsr	equ	0xFE0
   630                           fsr2h	equ	0xFDA
   631                           fsr2l	equ	0xFD9
   632                           status	equ	0xFD8
   633                           
   634                           	psect	intcode_body
   635  00011A                     __pintcode_body:
   636                           	opt stack 28
   637  00011A                     int_func:
   638                           	opt stack 28
   639  00011A  CFE9 F003          	movff	fsr0l,??_high_isr+2
   640  00011E  CFEA F004          	movff	fsr0h,??_high_isr+3
   641  000122  CFE1 F005          	movff	fsr1l,??_high_isr+4
   642  000126  CFE2 F006          	movff	fsr1h,??_high_isr+5
   643  00012A  CFD9 F007          	movff	fsr2l,??_high_isr+6
   644  00012E  CFDA F008          	movff	fsr2h,??_high_isr+7
   645  000132  CFF3 F009          	movff	prodl,??_high_isr+8
   646  000136  CFF4 F00A          	movff	prodh,??_high_isr+9
   647  00013A  CFF6 F00B          	movff	tblptrl,??_high_isr+10
   648  00013E  CFF7 F00C          	movff	tblptrh,??_high_isr+11
   649  000142  CFF8 F00D          	movff	tblptru,??_high_isr+12
   650  000146  CFF5 F00E          	movff	tablat,??_high_isr+13
   651  00014A  C00E  FFF5         	movff	??_high_isr+13,tablat
   652  00014E  C00D  FFF8         	movff	??_high_isr+12,tblptru
   653  000152  C00C  FFF7         	movff	??_high_isr+11,tblptrh
   654  000156  C00B  FFF6         	movff	??_high_isr+10,tblptrl
   655  00015A  C00A  FFF4         	movff	??_high_isr+9,prodh
   656  00015E  C009  FFF3         	movff	??_high_isr+8,prodl
   657  000162  C008  FFDA         	movff	??_high_isr+7,fsr2h
   658  000166  C007  FFD9         	movff	??_high_isr+6,fsr2l
   659  00016A  C006  FFE2         	movff	??_high_isr+5,fsr1h
   660  00016E  C005  FFE1         	movff	??_high_isr+4,fsr1l
   661  000172  C004  FFEA         	movff	??_high_isr+3,fsr0h
   662  000176  C003  FFE9         	movff	??_high_isr+2,fsr0l
   663  00017A  C002  FFFB         	movff	??_high_isr+1,pclatu
   664  00017E  C001  FFFA         	movff	??_high_isr,pclath
   665  000182  9224               	bcf	btemp,1,c	;clear compiler interrupt flag (level 2)
   666  000184  0011               	retfie		f
   667  000186                     __end_of_high_isr:
   668                           	opt stack 0
   669  0000                     pclatu	equ	0xFFB
   670                           pclath	equ	0xFFA
   671                           tblptru	equ	0xFF8
   672                           tblptrh	equ	0xFF7
   673                           tblptrl	equ	0xFF6
   674                           tablat	equ	0xFF5
   675                           prodh	equ	0xFF4
   676                           prodl	equ	0xFF3
   677                           fsr0h	equ	0xFEA
   678                           fsr0l	equ	0xFE9
   679                           wreg	equ	0xFE8
   680                           fsr1h	equ	0xFE2
   681                           fsr1l	equ	0xFE1
   682                           bsr	equ	0xFE0
   683                           fsr2h	equ	0xFDA
   684                           fsr2l	equ	0xFD9
   685                           status	equ	0xFD8
   686                           pclatu	equ	0xFFB
   687                           pclath	equ	0xFFA
   688                           tblptru	equ	0xFF8
   689                           tblptrh	equ	0xFF7
   690                           tblptrl	equ	0xFF6
   691                           tablat	equ	0xFF5
   692                           prodh	equ	0xFF4
   693                           prodl	equ	0xFF3
   694                           fsr0h	equ	0xFEA
   695                           fsr0l	equ	0xFE9
   696                           wreg	equ	0xFE8
   697                           fsr1h	equ	0xFE2
   698                           fsr1l	equ	0xFE1
   699                           bsr	equ	0xFE0
   700                           fsr2h	equ	0xFDA
   701                           fsr2l	equ	0xFD9
   702                           status	equ	0xFD8
   703                           
   704                           	psect	rparam
   705  0000                     pclatu	equ	0xFFB
   706                           pclath	equ	0xFFA
   707                           tblptru	equ	0xFF8
   708                           tblptrh	equ	0xFF7
   709                           tblptrl	equ	0xFF6
   710                           tablat	equ	0xFF5
   711                           prodh	equ	0xFF4
   712                           prodl	equ	0xFF3
   713                           fsr0h	equ	0xFEA
   714                           fsr0l	equ	0xFE9
   715                           wreg	equ	0xFE8
   716                           fsr1h	equ	0xFE2
   717                           fsr1l	equ	0xFE1
   718                           bsr	equ	0xFE0
   719                           fsr2h	equ	0xFDA
   720                           fsr2l	equ	0xFD9
   721                           status	equ	0xFD8
   722                           
   723                           	psect	temp
   724  000024                     btemp:
   725                           	opt stack 0
   726  000024                     	ds	1
   727  0000                     int$flags	set	btemp
   728                           pclatu	equ	0xFFB
   729                           pclath	equ	0xFFA
   730                           tblptru	equ	0xFF8
   731                           tblptrh	equ	0xFF7
   732                           tblptrl	equ	0xFF6
   733                           tablat	equ	0xFF5
   734                           prodh	equ	0xFF4
   735                           prodl	equ	0xFF3
   736                           fsr0h	equ	0xFEA
   737                           fsr0l	equ	0xFE9
   738                           wreg	equ	0xFE8
   739                           fsr1h	equ	0xFE2
   740                           fsr1l	equ	0xFE1
   741                           bsr	equ	0xFE0
   742                           fsr2h	equ	0xFDA
   743                           fsr2l	equ	0xFD9
   744                           status	equ	0xFD8


Data Sizes:
    Strings     0
    Constant    0
    Data        0
    BSS         0
    Persistent  0
    Stack       0

Auto Spaces:
    Space          Size  Autos    Used
    COMRAM           94     35      35
    BANK0           160      0       0
    BANK1           256      0       0
    BANK2           256      0       0
    BANK3           256      0       0
    BANK4           256      0       0
    BANK5           256      0       0
    BANK6           256      0       0
    BANK7           256      0       0
    BANK8           256      0       0
    BANK9           256      0       0
    BANK10          256      0       0
    BANK11          256      0       0
    BANK12          256      0       0

Pointer List with Targets:

    None.

Critical Paths under _main in COMRAM

    None.

Critical Paths under _low_isr in COMRAM

    None.

Critical Paths under _high_isr in COMRAM

    None.

Critical Paths under _main in BANK0

    None.

Critical Paths under _low_isr in BANK0

    None.

Critical Paths under _high_isr in BANK0

    None.

Critical Paths under _main in BANK1

    None.

Critical Paths under _low_isr in BANK1

    None.

Critical Paths under _high_isr in BANK1

    None.

Critical Paths under _main in BANK2

    None.

Critical Paths under _low_isr in BANK2

    None.

Critical Paths under _high_isr in BANK2

    None.

Critical Paths under _main in BANK3

    None.

Critical Paths under _low_isr in BANK3

    None.

Critical Paths under _high_isr in BANK3

    None.

Critical Paths under _main in BANK4

    None.

Critical Paths under _low_isr in BANK4

    None.

Critical Paths under _high_isr in BANK4

    None.

Critical Paths under _main in BANK5

    None.

Critical Paths under _low_isr in BANK5

    None.

Critical Paths under _high_isr in BANK5

    None.

Critical Paths under _main in BANK6

    None.

Critical Paths under _low_isr in BANK6

    None.

Critical Paths under _high_isr in BANK6

    None.

Critical Paths under _main in BANK7

    None.

Critical Paths under _low_isr in BANK7

    None.

Critical Paths under _high_isr in BANK7

    None.

Critical Paths under _main in BANK8

    None.

Critical Paths under _low_isr in BANK8

    None.

Critical Paths under _high_isr in BANK8

    None.

Critical Paths under _main in BANK9

    None.

Critical Paths under _low_isr in BANK9

    None.

Critical Paths under _high_isr in BANK9

    None.

Critical Paths under _main in BANK10

    None.

Critical Paths under _low_isr in BANK10

    None.

Critical Paths under _high_isr in BANK10

    None.

Critical Paths under _main in BANK11

    None.

Critical Paths under _low_isr in BANK11

    None.

Critical Paths under _high_isr in BANK11

    None.

Critical Paths under _main in BANK12

    None.

Critical Paths under _low_isr in BANK12

    None.

Critical Paths under _high_isr in BANK12

    None.

Call Graph Tables:

 ---------------------------------------------------------------------------------
 (Depth) Function   	        Calls       Base Space   Used Autos Params    Refs
 ---------------------------------------------------------------------------------
 (0) _main                                                 4     4      0      75
                                             31 COMRAM     4     4      0
                _ConfigureOscillator
                            _InitApp
                   _setActuatorCntrl
                        _setAnalogIn
 ---------------------------------------------------------------------------------
 (1) _setAnalogIn                                          0     0      0       0
 ---------------------------------------------------------------------------------
 (1) _setActuatorCntrl                                     0     0      0       0
 ---------------------------------------------------------------------------------
 (1) _InitApp                                              0     0      0       0
 ---------------------------------------------------------------------------------
 (1) _ConfigureOscillator                                  0     0      0       0
 ---------------------------------------------------------------------------------
 Estimated maximum stack depth 1
 ---------------------------------------------------------------------------------
 (Depth) Function   	        Calls       Base Space   Used Autos Params    Refs
 ---------------------------------------------------------------------------------
 (2) _low_isr                                             17    17      0       0
                                             14 COMRAM    17    17      0
 ---------------------------------------------------------------------------------
 Estimated maximum stack depth 2
 ---------------------------------------------------------------------------------
 (Depth) Function   	        Calls       Base Space   Used Autos Params    Refs
 ---------------------------------------------------------------------------------
 (3) _high_isr                                            14    14      0       0
                                              0 COMRAM    14    14      0
 ---------------------------------------------------------------------------------
 Estimated maximum stack depth 3
 ---------------------------------------------------------------------------------

 Call Graph Graphs:

 _main (ROOT)
   _ConfigureOscillator
   _InitApp
   _setActuatorCntrl
   _setAnalogIn

 _low_isr (ROOT)

 _high_isr (ROOT)

 Address spaces:
Name               Size   Autos  Total    Cost      Usage
BITCOMRAM           5E      0       0       0        0.0%
EEDATA             400      0       0       0        0.0%
NULL                 0      0       0       0        0.0%
CODE                 0      0       0       0        0.0%
COMRAM              5E     23      23       1       37.2%
STACK                0      0       0       2        0.0%
DATA                 0      0       0       3        0.0%
BITBANK0            A0      0       0       4        0.0%
BANK0               A0      0       0       5        0.0%
BITBANK1           100      0       0       6        0.0%
BANK1              100      0       0       7        0.0%
BITBANK2           100      0       0       8        0.0%
BANK2              100      0       0       9        0.0%
BITBANK3           100      0       0      10        0.0%
BANK3              100      0       0      11        0.0%
BITBANK4           100      0       0      12        0.0%
BANK4              100      0       0      13        0.0%
BITBANK5           100      0       0      14        0.0%
BANK5              100      0       0      15        0.0%
BITBANK6           100      0       0      16        0.0%
BANK6              100      0       0      17        0.0%
BITBANK7           100      0       0      18        0.0%
BANK7              100      0       0      19        0.0%
ABS                  0      0       0      20        0.0%
BITBANK8           100      0       0      21        0.0%
BANK8              100      0       0      22        0.0%
BITBANK9           100      0       0      23        0.0%
BANK9              100      0       0      24        0.0%
BITBANK10          100      0       0      25        0.0%
BANK10             100      0       0      26        0.0%
BITBANK11          100      0       0      27        0.0%
BANK11             100      0       0      28        0.0%
BITBANK12          100      0       0      29        0.0%
BANK12             100      0       0      30        0.0%
BIGRAM             CFF      0       0      31        0.0%
BITSFR_3             0      0       0      40        0.0%
SFR_3                0      0       0      40        0.0%
BITSFR_2             0      0       0      40        0.0%
SFR_2                0      0       0      40        0.0%
BITSFR_1             0      0       0      40        0.0%
SFR_1                0      0       0      40        0.0%
BITSFR               0      0       0      40        0.0%
SFR                  0      0       0      40        0.0%


Microchip Technology PIC18 Macro Assembler V1.36 build -262312587 
Symbol Table                                                                                   Wed Feb 24 00:12:57 2016

                          l31 00F8                            l26 00C6                            bsr 000FE0  
                 __CFG_BORV$3 000000                  __CFG_CP0$OFF 000000                  __CFG_CP1$OFF 000000  
                __CFG_CP2$OFF 000000                  __CFG_CP3$OFF 000000                  __CFG_CP4$OFF 000000  
                __CFG_CP5$OFF 000000                   __CFG_LVP$ON 000000                           l693 0110  
                         l685 00E6                           l677 00C4                  __CFG_CPB$OFF 000000  
                __CFG_CPD$OFF 000000                           wreg 000FE8                  __CFG_WDT$OFF 000000  
                        _main 00AA                          fsr0h 000FEA                          fsr1h 000FE2  
                        fsr0l 000FE9                          fsr2h 000FDA                          fsr1l 000FE1  
                        fsr2l 000FD9                          btemp 0024                          pclat 000FFA  
                        prodh 000FF4                          prodl 000FF3                          start 00A6  
               __CFG_IESO$OFF 000000                 __CFG_MCLRE$ON 000000                  ___param_bank 000010  
             __end_of_InitApp 01E0                         ?_main 0001           _ConfigureOscillator 01C2  
               __CFG_PWRT$OFF 000000                 __CFG_WRT0$OFF 000000                 __CFG_WRT1$OFF 000000  
               __CFG_WRT2$OFF 000000                 __CFG_WRT3$OFF 000000                 __CFG_WRT4$OFF 000000  
               __CFG_WRT5$OFF 000000      __end_of_setActuatorCntrl 01DE                __CFG_EBTR0$OFF 000000  
              __CFG_FCMEN$OFF 000000                __CFG_EBTR1$OFF 000000                __CFG_EBTR2$OFF 000000  
              __CFG_EBTR3$OFF 000000                __CFG_EBTR4$OFF 000000                __CFG_EBTR5$OFF 000000  
               __CFG_WRTB$OFF 000000                 __CFG_WRTC$OFF 000000                 __CFG_WRTD$OFF 000000  
              __CFG_EBTRB$OFF 000000               __end_of_low_isr 00A6                         tablat 000FF5  
                       status 000FD8                __CFG_PBADEN$ON 000000          ?_ConfigureOscillator 0001  
             __initialization 01CE                  ?_setAnalogIn 0001                  __end_of_main 011A  
                      ??_main 0020                 __activetblptr 000000                        _ADRESH 000FC4  
                      _ADRESL 000FC3               __CFG_BBSIZ$1024 000000                     ??_InitApp 0020  
       ??_ConfigureOscillator 0020                __CFG_XINST$OFF 000000              __end_of_high_isr 0186  
              __CFG_STVREN$ON 000000               __CFG_BOREN$BOHW 000000                     ??_low_isr 000F  
                      tblptrh 000FF7                        tblptrl 000FF6                        tblptru 000FF8  
                  __accesstop 0060       __end_of__initialization 01CE                 ___rparam_used 000001  
              __pcstackCOMRAM 0001          __size_of_setAnalogIn 003C             ?_setActuatorCntrl 0001  
                   ?_high_isr 0001            ??_setActuatorCntrl 0020                       _InitApp 01DE  
                     __Hparam 0000                       __Lparam 0000                       __pcinit 01CE  
                     __ramtop 0D00                       __ptext0 00AA                       __ptext1 0186  
                     __ptext2 01D8                       __ptext3 01DE                       __ptext4 01C2  
                     _low_isr 0018                    ??_high_isr 0001                __pintcode_body 011A  
        end_of_initialization 01CE                       int_func 011A                     _TRISAbits 000F92  
                   _TRISBbits 000F93                     _TRISDbits 000F95                     _TRISEbits 000F96  
 __end_of_ConfigureOscillator 01CE             main@desiredOnePos 0022           start_initialization 01CE  
            __CFG_OSC$IRCIO67 000000              __CFG_LPT1OSC$OFF 000000             __size_of_high_isr 017E  
                    ?_InitApp 0001     __size_of_setActuatorCntrl 0006                 ??_setAnalogIn 0020  
                   __pintcode 0008                   __pintcodelo 0018                      ?_low_isr 0001  
          main@actuatorOnePos 0020                      _LATDbits 000F8C              __CFG_WDTPS$32768 000000  
         __end_of_setAnalogIn 01C2                    _ADCON0bits 000FC2                    _ADCON1bits 000FC1  
                  _ADCON2bits 000FC0              __size_of_InitApp 0002                      __Hrparam 0000  
                    __Lrparam 0000              __size_of_low_isr 008E                      _high_isr 0008  
               __size_of_main 0070  __size_of_ConfigureOscillator 000C              _setActuatorCntrl 01D8  
                 _setAnalogIn 0186                      int$flags 0024                   _OSCTUNEbits 000F9B  
                    intlevel1 0000                      intlevel2 0000                    _OSCCONbits 000FD3  
